ARM GAS  C:\Users\koseki\AppData\Local\Temp\cclZqJ4D.s 			page 1


   1              		.syntax unified
   2              		.cpu cortex-m3
   3              		.fpu softvfp
   4              		.eabi_attribute 20, 1
   5              		.eabi_attribute 21, 1
   6              		.eabi_attribute 23, 3
   7              		.eabi_attribute 24, 1
   8              		.eabi_attribute 25, 1
   9              		.eabi_attribute 26, 1
  10              		.eabi_attribute 30, 1
  11              		.eabi_attribute 34, 1
  12              		.eabi_attribute 18, 4
  13              		.thumb
  14              		.file	"com.c"
  15              		.text
  16              	.Ltext0:
  17              		.cfi_sections	.debug_frame
  18              		.section	.text.COM_printf,"ax",%progbits
  19              		.align	2
  20              		.global	COM_printf
  21              		.thumb
  22              		.thumb_func
  23              		.type	COM_printf, %function
  24              	COM_printf:
  25              	.LFB64:
  26              		.file 1 "..\\API\\com.c"
   1:..\API/com.c  **** //=========================================================
   2:..\API/com.c  **** // PSoC5LP Project
   3:..\API/com.c  **** //=========================================================
   4:..\API/com.c  **** // File Name : com.c
   5:..\API/com.c  **** // Function  : COM Port Control Routime
   6:..\API/com.c  **** //---------------------------------------------------------
   7:..\API/com.c  **** // Rev.01 2013.02.04 Munetomo Maruyama
   8:..\API/com.c  **** //---------------------------------------------------------
   9:..\API/com.c  **** // Copyright (C) 2012-2013 Munetomo Maruyama
  10:..\API/com.c  **** //=========================================================
  11:..\API/com.c  **** // ---- License Information -------------------------------
  12:..\API/com.c  **** // Anyone can FREELY use this code fully or partially
  13:..\API/com.c  **** // under conditions shown below.
  14:..\API/com.c  **** // 1. You may use this code only for individual purpose,
  15:..\API/com.c  **** //    and educational purpose.
  16:..\API/com.c  **** //    Do not use this code for business even if partially.
  17:..\API/com.c  **** // 2. You can copy, modify and distribute this code.
  18:..\API/com.c  **** // 3. You should remain this header text in your codes
  19:..\API/com.c  **** //   including Copyright credit and License Information.
  20:..\API/com.c  **** // 4. Your codes should inherit this license information.
  21:..\API/com.c  **** //=========================================================
  22:..\API/com.c  **** // ---- Patent Notice -------------------------------------
  23:..\API/com.c  **** // I have not cared whether this system (hw + sw) causes
  24:..\API/com.c  **** // infringement on the patent, copyright, trademark,
  25:..\API/com.c  **** // or trade secret rights of others. You have all
  26:..\API/com.c  **** // responsibilities for determining if your designs
  27:..\API/com.c  **** // and products infringe on the intellectual property
  28:..\API/com.c  **** // rights of others, when you use technical information
  29:..\API/com.c  **** // included in this system for your business.
  30:..\API/com.c  **** //=========================================================
  31:..\API/com.c  **** // ---- Disclaimers ---------------------------------------
ARM GAS  C:\Users\koseki\AppData\Local\Temp\cclZqJ4D.s 			page 2


  32:..\API/com.c  **** // The function and reliability of this system are not
  33:..\API/com.c  **** // guaranteed. They may cause any damages to loss of
  34:..\API/com.c  **** // properties, data, money, profits, life, or business.
  35:..\API/com.c  **** // By adopting this system even partially, you assume
  36:..\API/com.c  **** // all responsibility for its use.
  37:..\API/com.c  **** //=========================================================
  38:..\API/com.c  **** 
  39:..\API/com.c  **** #include <project.h>
  40:..\API/com.c  **** #include <stdarg.h>
  41:..\API/com.c  **** #include "com.h"
  42:..\API/com.c  **** #include "utility.h"
  43:..\API/com.c  **** 
  44:..\API/com.c  **** //----------------
  45:..\API/com.c  **** // Defines
  46:..\API/com.c  **** //----------------
  47:..\API/com.c  **** #define USBUART_TIMEOUT 2000000 // Timeout for USB Connection (adjustment might be required)
  48:..\API/com.c  **** 
  49:..\API/com.c  **** //----------------
  50:..\API/com.c  **** // Globals
  51:..\API/com.c  **** //----------------
  52:..\API/com.c  **** volatile uint32 gUSBUART_Ready;
  53:..\API/com.c  **** 
  54:..\API/com.c  **** //=====================
  55:..\API/com.c  **** // Initialize COM
  56:..\API/com.c  **** //=====================
  57:..\API/com.c  **** void Init_COM(void)
  58:..\API/com.c  **** {
  59:..\API/com.c  ****     uint32 i;
  60:..\API/com.c  **** 
  61:..\API/com.c  ****     // 2016.5.11 koseki
  62:..\API/com.c  ****     //USBUART_1_Start(0, USBUART_1_3V_OPERATION);
  63:..\API/com.c  ****     USBUART_1_Start(0, USBUART_1_DWR_VDDD_OPERATION);
  64:..\API/com.c  **** 
  65:..\API/com.c  ****     //while(!USBUART_1_bGetConfiguration());
  66:..\API/com.c  ****     for (i = 0; i < USBUART_TIMEOUT; i++)
  67:..\API/com.c  ****     {
  68:..\API/com.c  ****         gUSBUART_Ready = USBUART_1_bGetConfiguration();
  69:..\API/com.c  ****         if (gUSBUART_Ready) break;
  70:..\API/com.c  ****     }
  71:..\API/com.c  ****     
  72:..\API/com.c  ****     // Initiaize UABUART
  73:..\API/com.c  ****     if (gUSBUART_Ready)
  74:..\API/com.c  ****         USBUART_1_CDC_Init();
  75:..\API/com.c  ****     else
  76:..\API/com.c  ****         USBUART_1_Stop();
  77:..\API/com.c  ****     
  78:..\API/com.c  ****     // Dummy Tx to establish Terminal on PC
  79:..\API/com.c  ****     COM_printf("This is a Dummy Tx.\r\n");
  80:..\API/com.c  **** }
  81:..\API/com.c  **** 
  82:..\API/com.c  **** //=====================
  83:..\API/com.c  **** // COM printf
  84:..\API/com.c  **** //=====================
  85:..\API/com.c  **** void COM_printf(const char *format, ...)
  86:..\API/com.c  **** {
  27              		.loc 1 86 0
  28              		.cfi_startproc
ARM GAS  C:\Users\koseki\AppData\Local\Temp\cclZqJ4D.s 			page 3


  29              		@ args = 4, pretend = 16, frame = 264
  30              		@ frame_needed = 0, uses_anonymous_args = 1
  31              	.LVL0:
  32 0000 0FB4     		push	{r0, r1, r2, r3}
  33              		.cfi_def_cfa_offset 16
  34              		.cfi_offset 0, -16
  35              		.cfi_offset 1, -12
  36              		.cfi_offset 2, -8
  37              		.cfi_offset 3, -4
  38 0002 30B5     		push	{r4, r5, lr}
  39              		.cfi_def_cfa_offset 28
  40              		.cfi_offset 4, -28
  41              		.cfi_offset 5, -24
  42              		.cfi_offset 14, -20
  43 0004 C3B0     		sub	sp, sp, #268
  44              		.cfi_def_cfa_offset 296
  87:..\API/com.c  ****     va_list ap;
  88:..\API/com.c  ****     uint8 buf[256];
  89:..\API/com.c  ****     uint8 *pStr;
  90:..\API/com.c  ****     
  91:..\API/com.c  ****     if (gUSBUART_Ready == 0) return;
  45              		.loc 1 91 0
  46 0006 0F4B     		ldr	r3, .L7
  47 0008 1B68     		ldr	r3, [r3]
  48 000a ABB1     		cbz	r3, .L1
  92:..\API/com.c  **** 
  93:..\API/com.c  ****     va_start(ap, format);
  49              		.loc 1 93 0
  50 000c 47AB     		add	r3, sp, #284
  51 000e 4193     		str	r3, [sp, #260]
  94:..\API/com.c  ****     xvsnprintf(buf, 256, format, ap);
  52              		.loc 1 94 0
  53 0010 01A8     		add	r0, sp, #4
  54 0012 4FF48071 		mov	r1, #256
  55 0016 469A     		ldr	r2, [sp, #280]
  56 0018 FFF7FEFF 		bl	xvsnprintf
  57              	.LVL1:
  95:..\API/com.c  ****     va_end(ap);
  96:..\API/com.c  **** 
  97:..\API/com.c  ****     pStr = buf;
  58              		.loc 1 97 0
  59 001c 01AC     		add	r4, sp, #4
  60              	.LVL2:
  98:..\API/com.c  ****     while(*pStr != '\0')
  61              		.loc 1 98 0
  62 001e 08E0     		b	.L3
  63              	.L4:
  99:..\API/com.c  ****     {
 100:..\API/com.c  ****         while (USBUART_1_CDCIsReady() == 0);
  64              		.loc 1 100 0 discriminator 1
  65 0020 FFF7FEFF 		bl	USBUART_1_CDCIsReady
  66              	.LVL3:
  67 0024 0028     		cmp	r0, #0
  68 0026 FBD0     		beq	.L4
 101:..\API/com.c  ****         USBUART_1_PutChar(*pStr++);
  69              		.loc 1 101 0
  70 0028 651C     		adds	r5, r4, #1
ARM GAS  C:\Users\koseki\AppData\Local\Temp\cclZqJ4D.s 			page 4


  71              	.LVL4:
  72 002a 2078     		ldrb	r0, [r4]	@ zero_extendqisi2
  73 002c FFF7FEFF 		bl	USBUART_1_PutChar
  74              	.LVL5:
  75 0030 2C46     		mov	r4, r5
  76              	.LVL6:
  77              	.L3:
  98:..\API/com.c  ****     while(*pStr != '\0')
  78              		.loc 1 98 0
  79 0032 2378     		ldrb	r3, [r4]	@ zero_extendqisi2
  80 0034 002B     		cmp	r3, #0
  81 0036 F3D1     		bne	.L4
  82              	.LVL7:
  83              	.L1:
 102:..\API/com.c  ****     }
 103:..\API/com.c  **** }
  84              		.loc 1 103 0
  85 0038 43B0     		add	sp, sp, #268
  86              		.cfi_def_cfa_offset 28
  87              		@ sp needed
  88 003a BDE83040 		pop	{r4, r5, lr}
  89              		.cfi_restore 14
  90              		.cfi_restore 5
  91              		.cfi_restore 4
  92              		.cfi_def_cfa_offset 16
  93 003e 04B0     		add	sp, sp, #16
  94              		.cfi_restore 3
  95              		.cfi_restore 2
  96              		.cfi_restore 1
  97              		.cfi_restore 0
  98              		.cfi_def_cfa_offset 0
  99 0040 7047     		bx	lr
 100              	.L8:
 101 0042 00BF     		.align	2
 102              	.L7:
 103 0044 00000000 		.word	gUSBUART_Ready
 104              		.cfi_endproc
 105              	.LFE64:
 106              		.size	COM_printf, .-COM_printf
 107              		.section	.text.Init_COM,"ax",%progbits
 108              		.align	2
 109              		.global	Init_COM
 110              		.thumb
 111              		.thumb_func
 112              		.type	Init_COM, %function
 113              	Init_COM:
 114              	.LFB63:
  58:..\API/com.c  ****     uint32 i;
 115              		.loc 1 58 0
 116              		.cfi_startproc
 117              		@ args = 0, pretend = 0, frame = 0
 118              		@ frame_needed = 0, uses_anonymous_args = 0
 119 0000 10B5     		push	{r4, lr}
 120              		.cfi_def_cfa_offset 8
 121              		.cfi_offset 4, -8
 122              		.cfi_offset 14, -4
  63:..\API/com.c  **** 
ARM GAS  C:\Users\koseki\AppData\Local\Temp\cclZqJ4D.s 			page 5


 123              		.loc 1 63 0
 124 0002 0020     		movs	r0, #0
 125 0004 0221     		movs	r1, #2
 126 0006 FFF7FEFF 		bl	USBUART_1_Start
 127              	.LVL8:
  66:..\API/com.c  ****     {
 128              		.loc 1 66 0
 129 000a 0024     		movs	r4, #0
 130 000c 06E0     		b	.L10
 131              	.LVL9:
 132              	.L12:
  68:..\API/com.c  ****         if (gUSBUART_Ready) break;
 133              		.loc 1 68 0
 134 000e FFF7FEFF 		bl	USBUART_1_GetConfiguration
 135              	.LVL10:
 136 0012 0A4B     		ldr	r3, .L16
 137 0014 1860     		str	r0, [r3]
  69:..\API/com.c  ****     }
 138              		.loc 1 69 0
 139 0016 1B68     		ldr	r3, [r3]
 140 0018 1BB9     		cbnz	r3, .L11
  66:..\API/com.c  ****     {
 141              		.loc 1 66 0 discriminator 2
 142 001a 0134     		adds	r4, r4, #1
 143              	.LVL11:
 144              	.L10:
  66:..\API/com.c  ****     {
 145              		.loc 1 66 0 is_stmt 0 discriminator 1
 146 001c 084B     		ldr	r3, .L16+4
 147 001e 9C42     		cmp	r4, r3
 148 0020 F5D9     		bls	.L12
 149              	.L11:
  73:..\API/com.c  ****         USBUART_1_CDC_Init();
 150              		.loc 1 73 0 is_stmt 1
 151 0022 064B     		ldr	r3, .L16
 152 0024 1B68     		ldr	r3, [r3]
 153 0026 13B1     		cbz	r3, .L13
  74:..\API/com.c  ****     else
 154              		.loc 1 74 0
 155 0028 FFF7FEFF 		bl	USBUART_1_CDC_Init
 156              	.LVL12:
 157 002c 01E0     		b	.L14
 158              	.L13:
  76:..\API/com.c  ****     
 159              		.loc 1 76 0
 160 002e FFF7FEFF 		bl	USBUART_1_Stop
 161              	.LVL13:
 162              	.L14:
  79:..\API/com.c  **** }
 163              		.loc 1 79 0
 164 0032 0448     		ldr	r0, .L16+8
 165 0034 FFF7FEFF 		bl	COM_printf
 166              	.LVL14:
 167 0038 10BD     		pop	{r4, pc}
 168              	.LVL15:
 169              	.L17:
 170 003a 00BF     		.align	2
ARM GAS  C:\Users\koseki\AppData\Local\Temp\cclZqJ4D.s 			page 6


 171              	.L16:
 172 003c 00000000 		.word	gUSBUART_Ready
 173 0040 7F841E00 		.word	1999999
 174 0044 00000000 		.word	.LC0
 175              		.cfi_endproc
 176              	.LFE63:
 177              		.size	Init_COM, .-Init_COM
 178              		.section	.text.COM_Wait_PC_Term,"ax",%progbits
 179              		.align	2
 180              		.global	COM_Wait_PC_Term
 181              		.thumb
 182              		.thumb_func
 183              		.type	COM_Wait_PC_Term, %function
 184              	COM_Wait_PC_Term:
 185              	.LFB65:
 104:..\API/com.c  **** 
 105:..\API/com.c  **** //===========================
 106:..\API/com.c  **** // Wait for setup PC Terminal
 107:..\API/com.c  **** //===========================
 108:..\API/com.c  **** void COM_Wait_PC_Term(void)
 109:..\API/com.c  **** {
 186              		.loc 1 109 0
 187              		.cfi_startproc
 188              		@ args = 0, pretend = 0, frame = 8
 189              		@ frame_needed = 0, uses_anonymous_args = 0
 110:..\API/com.c  ****     uint32 i;
 111:..\API/com.c  ****     uint8  len;
 112:..\API/com.c  ****     uint8  dummy;
 113:..\API/com.c  ****     //
 114:..\API/com.c  ****     if (gUSBUART_Ready == 0) return;
 190              		.loc 1 114 0
 191 0000 0E4B     		ldr	r3, .L27
 192 0002 1B68     		ldr	r3, [r3]
 193 0004 CBB1     		cbz	r3, .L26
 109:..\API/com.c  ****     uint32 i;
 194              		.loc 1 109 0
 195 0006 30B5     		push	{r4, r5, lr}
 196              		.cfi_def_cfa_offset 12
 197              		.cfi_offset 4, -12
 198              		.cfi_offset 5, -8
 199              		.cfi_offset 14, -4
 200 0008 83B0     		sub	sp, sp, #12
 201              		.cfi_def_cfa_offset 24
 202              	.L21:
 115:..\API/com.c  ****     //
 116:..\API/com.c  ****     while(1)
 117:..\API/com.c  ****     {
 118:..\API/com.c  ****         COM_printf("Push any Key to Start...\r");
 203              		.loc 1 118 0
 204 000a 0D48     		ldr	r0, .L27+4
 205 000c FFF7FEFF 		bl	COM_printf
 206              	.LVL16:
 119:..\API/com.c  ****         len = USBUART_1_DataIsReady();
 207              		.loc 1 119 0
 208 0010 FFF7FEFF 		bl	USBUART_1_DataIsReady
 209              	.LVL17:
 120:..\API/com.c  ****         if (len > 0) break;
ARM GAS  C:\Users\koseki\AppData\Local\Temp\cclZqJ4D.s 			page 7


 210              		.loc 1 120 0
 211 0014 0546     		mov	r5, r0
 212 0016 0028     		cmp	r0, #0
 213 0018 F7D0     		beq	.L21
 214 001a 06E0     		b	.L24
 215              	.LVL18:
 216              	.L22:
 121:..\API/com.c  ****     }
 122:..\API/com.c  ****     for (i = 0; i < len; i++) USBUART_1_GetData(&dummy, 1);
 217              		.loc 1 122 0 discriminator 3
 218 001c 0DF10700 		add	r0, sp, #7
 219 0020 0121     		movs	r1, #1
 220 0022 FFF7FEFF 		bl	USBUART_1_GetData
 221              	.LVL19:
 222 0026 0134     		adds	r4, r4, #1
 223              	.LVL20:
 224 0028 00E0     		b	.L20
 225              	.LVL21:
 226              	.L24:
 227 002a 0024     		movs	r4, #0
 228              	.LVL22:
 229              	.L20:
 230              		.loc 1 122 0 is_stmt 0 discriminator 1
 231 002c A542     		cmp	r5, r4
 232 002e F5D8     		bhi	.L22
 123:..\API/com.c  ****     COM_printf("\r\nOK!\r\n");
 233              		.loc 1 123 0 is_stmt 1
 234 0030 0448     		ldr	r0, .L27+8
 235 0032 FFF7FEFF 		bl	COM_printf
 236              	.LVL23:
 124:..\API/com.c  **** }
 237              		.loc 1 124 0
 238 0036 03B0     		add	sp, sp, #12
 239              		.cfi_def_cfa_offset 12
 240              		@ sp needed
 241 0038 30BD     		pop	{r4, r5, pc}
 242              	.LVL24:
 243              	.L26:
 244              		.cfi_def_cfa_offset 0
 245              		.cfi_restore 4
 246              		.cfi_restore 5
 247              		.cfi_restore 14
 248 003a 7047     		bx	lr
 249              	.L28:
 250              		.align	2
 251              	.L27:
 252 003c 00000000 		.word	gUSBUART_Ready
 253 0040 18000000 		.word	.LC1
 254 0044 34000000 		.word	.LC2
 255              		.cfi_endproc
 256              	.LFE65:
 257              		.size	COM_Wait_PC_Term, .-COM_Wait_PC_Term
 258              		.comm	gUSBUART_Ready,4,4
 259              		.section	.rodata.str1.4,"aMS",%progbits,1
 260              		.align	2
 261              	.LC0:
 262 0000 54686973 		.ascii	"This is a Dummy Tx.\015\012\000"
ARM GAS  C:\Users\koseki\AppData\Local\Temp\cclZqJ4D.s 			page 8


 262      20697320 
 262      61204475 
 262      6D6D7920 
 262      54782E0D 
 263 0016 0000     		.space	2
 264              	.LC1:
 265 0018 50757368 		.ascii	"Push any Key to Start...\015\000"
 265      20616E79 
 265      204B6579 
 265      20746F20 
 265      53746172 
 266 0032 0000     		.space	2
 267              	.LC2:
 268 0034 0D0A4F4B 		.ascii	"\015\012OK!\015\012\000"
 268      210D0A00 
 269              		.text
 270              	.Letext0:
 271              		.file 2 "c:\\program files (x86)\\cypress\\psoc creator\\3.3\\psoc creator\\import\\gnu\\arm\\4.9.
 272              		.file 3 "c:\\program files (x86)\\cypress\\psoc creator\\3.3\\psoc creator\\import\\gnu\\arm\\4.9.
 273              		.file 4 "Generated_Source\\PSoC5/cytypes.h"
 274              		.file 5 "c:\\program files (x86)\\cypress\\psoc creator\\3.3\\psoc creator\\import\\gnu\\arm\\4.9.
 275              		.file 6 "Generated_Source\\PSoC5/core_cm3.h"
 276              		.file 7 "Generated_Source\\PSoC5/USBUART_1_cdc.h"
 277              		.file 8 "Generated_Source\\PSoC5/USBUART_1.h"
 278              		.file 9 "<built-in>"
 279              		.file 10 "..\\API\\utility.h"