ARM GAS  C:\Users\koseki\AppData\Local\Temp\cc9cuxFl.s 			page 1


   1              		.syntax unified
   2              		.cpu cortex-m3
   3              		.fpu softvfp
   4              		.eabi_attribute 20, 1
   5              		.eabi_attribute 21, 1
   6              		.eabi_attribute 23, 3
   7              		.eabi_attribute 24, 1
   8              		.eabi_attribute 25, 1
   9              		.eabi_attribute 26, 1
  10              		.eabi_attribute 30, 1
  11              		.eabi_attribute 34, 1
  12              		.eabi_attribute 18, 4
  13              		.thumb
  14              		.file	"cyfitter_cfg.c"
  15              		.text
  16              	.Ltext0:
  17              		.cfi_sections	.debug_frame
  18              		.section	.text.CyClockStartupError,"ax",%progbits
  19              		.align	2
  20              		.thumb
  21              		.thumb_func
  22              		.type	CyClockStartupError, %function
  23              	CyClockStartupError:
  24              	.LFB3:
  25              		.file 1 ".\\Generated_Source\\PSoC5\\cyfitter_cfg.c"
   1:.\Generated_Source\PSoC5/cyfitter_cfg.c **** /*******************************************************************************
   2:.\Generated_Source\PSoC5/cyfitter_cfg.c **** * File Name: cyfitter_cfg.c
   3:.\Generated_Source\PSoC5/cyfitter_cfg.c **** * 
   4:.\Generated_Source\PSoC5/cyfitter_cfg.c **** * PSoC Creator  3.3 CP3
   5:.\Generated_Source\PSoC5/cyfitter_cfg.c **** *
   6:.\Generated_Source\PSoC5/cyfitter_cfg.c **** * Description:
   7:.\Generated_Source\PSoC5/cyfitter_cfg.c **** * This file contains device initialization code.
   8:.\Generated_Source\PSoC5/cyfitter_cfg.c **** * Except for the user defined sections in CyClockStartupError(), this file should not be modified.
   9:.\Generated_Source\PSoC5/cyfitter_cfg.c **** * This file is automatically generated by PSoC Creator.
  10:.\Generated_Source\PSoC5/cyfitter_cfg.c **** *
  11:.\Generated_Source\PSoC5/cyfitter_cfg.c **** ********************************************************************************
  12:.\Generated_Source\PSoC5/cyfitter_cfg.c **** * Copyright (c) 2007-2016 Cypress Semiconductor.  All rights reserved.
  13:.\Generated_Source\PSoC5/cyfitter_cfg.c **** * You may use this file only in accordance with the license, terms, conditions, 
  14:.\Generated_Source\PSoC5/cyfitter_cfg.c **** * disclaimers, and limitations in the end user license agreement accompanying 
  15:.\Generated_Source\PSoC5/cyfitter_cfg.c **** * the software package with which this file was provided.
  16:.\Generated_Source\PSoC5/cyfitter_cfg.c **** ********************************************************************************/
  17:.\Generated_Source\PSoC5/cyfitter_cfg.c **** 
  18:.\Generated_Source\PSoC5/cyfitter_cfg.c **** #include <string.h>
  19:.\Generated_Source\PSoC5/cyfitter_cfg.c **** #include "cytypes.h"
  20:.\Generated_Source\PSoC5/cyfitter_cfg.c **** #include "cydevice_trm.h"
  21:.\Generated_Source\PSoC5/cyfitter_cfg.c **** #include "cyfitter.h"
  22:.\Generated_Source\PSoC5/cyfitter_cfg.c **** #include "CyLib.h"
  23:.\Generated_Source\PSoC5/cyfitter_cfg.c **** #include "cyfitter_cfg.h"
  24:.\Generated_Source\PSoC5/cyfitter_cfg.c **** 
  25:.\Generated_Source\PSoC5/cyfitter_cfg.c **** #define CY_NEED_CYCLOCKSTARTUPERROR 1
  26:.\Generated_Source\PSoC5/cyfitter_cfg.c **** 
  27:.\Generated_Source\PSoC5/cyfitter_cfg.c **** 
  28:.\Generated_Source\PSoC5/cyfitter_cfg.c **** #if defined(__GNUC__) || defined(__ARMCC_VERSION)
  29:.\Generated_Source\PSoC5/cyfitter_cfg.c ****     #define CYPACKED 
  30:.\Generated_Source\PSoC5/cyfitter_cfg.c ****     #define CYPACKED_ATTR __attribute__ ((packed))
  31:.\Generated_Source\PSoC5/cyfitter_cfg.c ****     #define CYALIGNED __attribute__ ((aligned))
  32:.\Generated_Source\PSoC5/cyfitter_cfg.c ****     #define CY_CFG_UNUSED __attribute__ ((unused))
ARM GAS  C:\Users\koseki\AppData\Local\Temp\cc9cuxFl.s 			page 2


  33:.\Generated_Source\PSoC5/cyfitter_cfg.c ****     #ifndef CY_CFG_SECTION
  34:.\Generated_Source\PSoC5/cyfitter_cfg.c ****         #define CY_CFG_SECTION __attribute__ ((section(".psocinit")))
  35:.\Generated_Source\PSoC5/cyfitter_cfg.c ****     #endif
  36:.\Generated_Source\PSoC5/cyfitter_cfg.c ****     
  37:.\Generated_Source\PSoC5/cyfitter_cfg.c ****     #if defined(__ARMCC_VERSION)
  38:.\Generated_Source\PSoC5/cyfitter_cfg.c ****         #define CY_CFG_MEMORY_BARRIER() __memory_changed()
  39:.\Generated_Source\PSoC5/cyfitter_cfg.c ****     #else
  40:.\Generated_Source\PSoC5/cyfitter_cfg.c ****         #define CY_CFG_MEMORY_BARRIER() __sync_synchronize()
  41:.\Generated_Source\PSoC5/cyfitter_cfg.c ****     #endif
  42:.\Generated_Source\PSoC5/cyfitter_cfg.c ****     
  43:.\Generated_Source\PSoC5/cyfitter_cfg.c **** #elif defined(__ICCARM__)
  44:.\Generated_Source\PSoC5/cyfitter_cfg.c ****     #include <intrinsics.h>
  45:.\Generated_Source\PSoC5/cyfitter_cfg.c **** 
  46:.\Generated_Source\PSoC5/cyfitter_cfg.c ****     #define CYPACKED __packed
  47:.\Generated_Source\PSoC5/cyfitter_cfg.c ****     #define CYPACKED_ATTR 
  48:.\Generated_Source\PSoC5/cyfitter_cfg.c ****     #define CYALIGNED _Pragma("data_alignment=4")
  49:.\Generated_Source\PSoC5/cyfitter_cfg.c ****     #define CY_CFG_UNUSED _Pragma("diag_suppress=Pe177")
  50:.\Generated_Source\PSoC5/cyfitter_cfg.c ****     #define CY_CFG_SECTION _Pragma("location=\".psocinit\"")
  51:.\Generated_Source\PSoC5/cyfitter_cfg.c ****     
  52:.\Generated_Source\PSoC5/cyfitter_cfg.c ****     #define CY_CFG_MEMORY_BARRIER() __DMB()
  53:.\Generated_Source\PSoC5/cyfitter_cfg.c ****     
  54:.\Generated_Source\PSoC5/cyfitter_cfg.c **** #else
  55:.\Generated_Source\PSoC5/cyfitter_cfg.c ****     #error Unsupported toolchain
  56:.\Generated_Source\PSoC5/cyfitter_cfg.c **** #endif
  57:.\Generated_Source\PSoC5/cyfitter_cfg.c **** 
  58:.\Generated_Source\PSoC5/cyfitter_cfg.c **** 
  59:.\Generated_Source\PSoC5/cyfitter_cfg.c **** CY_CFG_UNUSED
  60:.\Generated_Source\PSoC5/cyfitter_cfg.c **** static void CYMEMZERO(void *s, size_t n);
  61:.\Generated_Source\PSoC5/cyfitter_cfg.c **** CY_CFG_UNUSED
  62:.\Generated_Source\PSoC5/cyfitter_cfg.c **** static void CYMEMZERO(void *s, size_t n)
  63:.\Generated_Source\PSoC5/cyfitter_cfg.c **** {
  64:.\Generated_Source\PSoC5/cyfitter_cfg.c **** 	(void)memset(s, 0, n);
  65:.\Generated_Source\PSoC5/cyfitter_cfg.c **** }
  66:.\Generated_Source\PSoC5/cyfitter_cfg.c **** CY_CFG_UNUSED
  67:.\Generated_Source\PSoC5/cyfitter_cfg.c **** static void CYCONFIGCPY(void *dest, const void *src, size_t n);
  68:.\Generated_Source\PSoC5/cyfitter_cfg.c **** CY_CFG_UNUSED
  69:.\Generated_Source\PSoC5/cyfitter_cfg.c **** static void CYCONFIGCPY(void *dest, const void *src, size_t n)
  70:.\Generated_Source\PSoC5/cyfitter_cfg.c **** {
  71:.\Generated_Source\PSoC5/cyfitter_cfg.c **** 	(void)memcpy(dest, src, n);
  72:.\Generated_Source\PSoC5/cyfitter_cfg.c **** }
  73:.\Generated_Source\PSoC5/cyfitter_cfg.c **** CY_CFG_UNUSED
  74:.\Generated_Source\PSoC5/cyfitter_cfg.c **** static void CYCONFIGCPYCODE(void *dest, const void *src, size_t n);
  75:.\Generated_Source\PSoC5/cyfitter_cfg.c **** CY_CFG_UNUSED
  76:.\Generated_Source\PSoC5/cyfitter_cfg.c **** static void CYCONFIGCPYCODE(void *dest, const void *src, size_t n)
  77:.\Generated_Source\PSoC5/cyfitter_cfg.c **** {
  78:.\Generated_Source\PSoC5/cyfitter_cfg.c **** 	(void)memcpy(dest, src, n);
  79:.\Generated_Source\PSoC5/cyfitter_cfg.c **** }
  80:.\Generated_Source\PSoC5/cyfitter_cfg.c **** 
  81:.\Generated_Source\PSoC5/cyfitter_cfg.c **** 
  82:.\Generated_Source\PSoC5/cyfitter_cfg.c **** 
  83:.\Generated_Source\PSoC5/cyfitter_cfg.c **** /* Clock startup error codes                                                   */
  84:.\Generated_Source\PSoC5/cyfitter_cfg.c **** #define CYCLOCKSTART_NO_ERROR    0u
  85:.\Generated_Source\PSoC5/cyfitter_cfg.c **** #define CYCLOCKSTART_XTAL_ERROR  1u
  86:.\Generated_Source\PSoC5/cyfitter_cfg.c **** #define CYCLOCKSTART_32KHZ_ERROR 2u
  87:.\Generated_Source\PSoC5/cyfitter_cfg.c **** #define CYCLOCKSTART_PLL_ERROR   3u
  88:.\Generated_Source\PSoC5/cyfitter_cfg.c **** 
  89:.\Generated_Source\PSoC5/cyfitter_cfg.c **** #ifdef CY_NEED_CYCLOCKSTARTUPERROR
ARM GAS  C:\Users\koseki\AppData\Local\Temp\cc9cuxFl.s 			page 3


  90:.\Generated_Source\PSoC5/cyfitter_cfg.c **** /*******************************************************************************
  91:.\Generated_Source\PSoC5/cyfitter_cfg.c **** * Function Name: CyClockStartupError
  92:.\Generated_Source\PSoC5/cyfitter_cfg.c **** ********************************************************************************
  93:.\Generated_Source\PSoC5/cyfitter_cfg.c **** * Summary:
  94:.\Generated_Source\PSoC5/cyfitter_cfg.c **** *  If an error is encountered during clock configuration (crystal startup error,
  95:.\Generated_Source\PSoC5/cyfitter_cfg.c **** *  PLL lock error, etc.), the system will end up here.  Unless reimplemented by
  96:.\Generated_Source\PSoC5/cyfitter_cfg.c **** *  the customer, this function will stop in an infinite loop.
  97:.\Generated_Source\PSoC5/cyfitter_cfg.c **** *
  98:.\Generated_Source\PSoC5/cyfitter_cfg.c **** * Parameters:
  99:.\Generated_Source\PSoC5/cyfitter_cfg.c **** *   void
 100:.\Generated_Source\PSoC5/cyfitter_cfg.c **** *
 101:.\Generated_Source\PSoC5/cyfitter_cfg.c **** * Return:
 102:.\Generated_Source\PSoC5/cyfitter_cfg.c **** *   void
 103:.\Generated_Source\PSoC5/cyfitter_cfg.c **** *
 104:.\Generated_Source\PSoC5/cyfitter_cfg.c **** *******************************************************************************/
 105:.\Generated_Source\PSoC5/cyfitter_cfg.c **** CY_CFG_UNUSED
 106:.\Generated_Source\PSoC5/cyfitter_cfg.c **** static void CyClockStartupError(uint8 errorCode);
 107:.\Generated_Source\PSoC5/cyfitter_cfg.c **** CY_CFG_UNUSED
 108:.\Generated_Source\PSoC5/cyfitter_cfg.c **** static void CyClockStartupError(uint8 errorCode)
 109:.\Generated_Source\PSoC5/cyfitter_cfg.c **** {
  26              		.loc 1 109 0
  27              		.cfi_startproc
  28              		@ Volatile: function does not return.
  29              		@ args = 0, pretend = 0, frame = 0
  30              		@ frame_needed = 0, uses_anonymous_args = 0
  31              		@ link register save eliminated.
  32              	.LVL0:
  33              	.L2:
 110:.\Generated_Source\PSoC5/cyfitter_cfg.c ****     /* To remove the compiler warning if errorCode not used.                */
 111:.\Generated_Source\PSoC5/cyfitter_cfg.c ****     errorCode = errorCode;
 112:.\Generated_Source\PSoC5/cyfitter_cfg.c **** 
 113:.\Generated_Source\PSoC5/cyfitter_cfg.c ****     /* `#START CyClockStartupError` */
 114:.\Generated_Source\PSoC5/cyfitter_cfg.c **** 
 115:.\Generated_Source\PSoC5/cyfitter_cfg.c ****     /* If we have a clock startup error (bad MHz crystal, PLL lock, etc.),  */
 116:.\Generated_Source\PSoC5/cyfitter_cfg.c ****     /* we will end up here to allow the customer to implement something to  */
 117:.\Generated_Source\PSoC5/cyfitter_cfg.c ****     /* deal with the clock condition.                                       */
 118:.\Generated_Source\PSoC5/cyfitter_cfg.c **** 
 119:.\Generated_Source\PSoC5/cyfitter_cfg.c ****     /* `#END` */
 120:.\Generated_Source\PSoC5/cyfitter_cfg.c **** 
 121:.\Generated_Source\PSoC5/cyfitter_cfg.c ****     /* If nothing else, stop here since the clocks have not started         */
 122:.\Generated_Source\PSoC5/cyfitter_cfg.c ****     /* correctly.                                                           */
 123:.\Generated_Source\PSoC5/cyfitter_cfg.c ****     while(1) {}
  34              		.loc 1 123 0 discriminator 1
  35 0000 FEE7     		b	.L2
  36              		.cfi_endproc
  37              	.LFE3:
  38              		.size	CyClockStartupError, .-CyClockStartupError
  39 0002 00BF     		.section	.text.cfg_write_bytes32,"ax",%progbits
  40              		.align	2
  41              		.thumb
  42              		.thumb_func
  43              		.type	cfg_write_bytes32, %function
  44              	cfg_write_bytes32:
  45              	.LFB4:
 124:.\Generated_Source\PSoC5/cyfitter_cfg.c **** }
 125:.\Generated_Source\PSoC5/cyfitter_cfg.c **** #endif
 126:.\Generated_Source\PSoC5/cyfitter_cfg.c **** 
ARM GAS  C:\Users\koseki\AppData\Local\Temp\cc9cuxFl.s 			page 4


 127:.\Generated_Source\PSoC5/cyfitter_cfg.c **** #define CY_CFG_BASE_ADDR_COUNT 28u
 128:.\Generated_Source\PSoC5/cyfitter_cfg.c **** CYPACKED typedef struct
 129:.\Generated_Source\PSoC5/cyfitter_cfg.c **** {
 130:.\Generated_Source\PSoC5/cyfitter_cfg.c **** 	uint8 offset;
 131:.\Generated_Source\PSoC5/cyfitter_cfg.c **** 	uint8 value;
 132:.\Generated_Source\PSoC5/cyfitter_cfg.c **** } CYPACKED_ATTR cy_cfg_addrvalue_t;
 133:.\Generated_Source\PSoC5/cyfitter_cfg.c **** 
 134:.\Generated_Source\PSoC5/cyfitter_cfg.c **** #define cy_cfg_addr_table ((const uint32 CYFAR *)0x48000000u)
 135:.\Generated_Source\PSoC5/cyfitter_cfg.c **** #define cy_cfg_data_table ((const cy_cfg_addrvalue_t CYFAR *)0x48000070u)
 136:.\Generated_Source\PSoC5/cyfitter_cfg.c **** 
 137:.\Generated_Source\PSoC5/cyfitter_cfg.c **** /* IOPINS0_0 Address: CYREG_PRT0_DM0 Size (bytes): 8 */
 138:.\Generated_Source\PSoC5/cyfitter_cfg.c **** #define BS_IOPINS0_0_VAL ((const uint8 CYFAR *)0x480002A0u)
 139:.\Generated_Source\PSoC5/cyfitter_cfg.c **** 
 140:.\Generated_Source\PSoC5/cyfitter_cfg.c **** /* IOPINS0_7 Address: CYREG_PRT12_DM0 Size (bytes): 8 */
 141:.\Generated_Source\PSoC5/cyfitter_cfg.c **** #define BS_IOPINS0_7_VAL ((const uint8 CYFAR *)0x480002A8u)
 142:.\Generated_Source\PSoC5/cyfitter_cfg.c **** 
 143:.\Generated_Source\PSoC5/cyfitter_cfg.c **** /* IOPINS0_2 Address: CYREG_PRT2_DM0 Size (bytes): 8 */
 144:.\Generated_Source\PSoC5/cyfitter_cfg.c **** #define BS_IOPINS0_2_VAL ((const uint8 CYFAR *)0x480002B0u)
 145:.\Generated_Source\PSoC5/cyfitter_cfg.c **** 
 146:.\Generated_Source\PSoC5/cyfitter_cfg.c **** 
 147:.\Generated_Source\PSoC5/cyfitter_cfg.c **** /*******************************************************************************
 148:.\Generated_Source\PSoC5/cyfitter_cfg.c **** * Function Name: cfg_write_bytes32
 149:.\Generated_Source\PSoC5/cyfitter_cfg.c **** ********************************************************************************
 150:.\Generated_Source\PSoC5/cyfitter_cfg.c **** * Summary:
 151:.\Generated_Source\PSoC5/cyfitter_cfg.c **** *  This function is used for setting up the chip configuration areas that
 152:.\Generated_Source\PSoC5/cyfitter_cfg.c **** *  contain relatively sparse data.
 153:.\Generated_Source\PSoC5/cyfitter_cfg.c **** *
 154:.\Generated_Source\PSoC5/cyfitter_cfg.c **** * Parameters:
 155:.\Generated_Source\PSoC5/cyfitter_cfg.c **** *   void
 156:.\Generated_Source\PSoC5/cyfitter_cfg.c **** *
 157:.\Generated_Source\PSoC5/cyfitter_cfg.c **** * Return:
 158:.\Generated_Source\PSoC5/cyfitter_cfg.c **** *   void
 159:.\Generated_Source\PSoC5/cyfitter_cfg.c **** *
 160:.\Generated_Source\PSoC5/cyfitter_cfg.c **** *******************************************************************************/
 161:.\Generated_Source\PSoC5/cyfitter_cfg.c **** static void cfg_write_bytes32(const uint32 addr_table[], const cy_cfg_addrvalue_t data_table[]);
 162:.\Generated_Source\PSoC5/cyfitter_cfg.c **** static void cfg_write_bytes32(const uint32 addr_table[], const cy_cfg_addrvalue_t data_table[])
 163:.\Generated_Source\PSoC5/cyfitter_cfg.c **** {
  46              		.loc 1 163 0
  47              		.cfi_startproc
  48              		@ args = 0, pretend = 0, frame = 0
  49              		@ frame_needed = 0, uses_anonymous_args = 0
  50              		@ link register save eliminated.
  51              	.LVL1:
  52 0000 F0B4     		push	{r4, r5, r6, r7}
  53              		.cfi_def_cfa_offset 16
  54              		.cfi_offset 4, -16
  55              		.cfi_offset 5, -12
  56              		.cfi_offset 6, -8
  57              		.cfi_offset 7, -4
  58              	.LVL2:
 164:.\Generated_Source\PSoC5/cyfitter_cfg.c **** 	/* For 32-bit little-endian architectures */
 165:.\Generated_Source\PSoC5/cyfitter_cfg.c **** 	uint32 i, j = 0u;
  59              		.loc 1 165 0
  60 0002 0022     		movs	r2, #0
 166:.\Generated_Source\PSoC5/cyfitter_cfg.c **** 	for (i = 0u; i < CY_CFG_BASE_ADDR_COUNT; i++)
  61              		.loc 1 166 0
  62 0004 1746     		mov	r7, r2
ARM GAS  C:\Users\koseki\AppData\Local\Temp\cc9cuxFl.s 			page 5


  63 0006 11E0     		b	.L4
  64              	.LVL3:
  65              	.L7:
  66              	.LBB2:
 167:.\Generated_Source\PSoC5/cyfitter_cfg.c **** 	{
 168:.\Generated_Source\PSoC5/cyfitter_cfg.c **** 		uint32 baseAddr = addr_table[i];
  67              		.loc 1 168 0
  68 0008 50F82760 		ldr	r6, [r0, r7, lsl #2]
  69              	.LVL4:
 169:.\Generated_Source\PSoC5/cyfitter_cfg.c **** 		uint8 count = (uint8)baseAddr;
  70              		.loc 1 169 0
  71 000c F3B2     		uxtb	r3, r6
  72              	.LVL5:
 170:.\Generated_Source\PSoC5/cyfitter_cfg.c **** 		baseAddr &= 0xFFFFFF00u;
  73              		.loc 1 170 0
  74 000e 26F0FF06 		bic	r6, r6, #255
  75              	.LVL6:
 171:.\Generated_Source\PSoC5/cyfitter_cfg.c **** 		while (count != 0u)
  76              		.loc 1 171 0
  77 0012 08E0     		b	.L5
  78              	.L6:
 172:.\Generated_Source\PSoC5/cyfitter_cfg.c **** 		{
 173:.\Generated_Source\PSoC5/cyfitter_cfg.c **** 			CY_SET_XTND_REG8((void CYFAR *)(baseAddr + data_table[j].offset), data_table[j].value);
  79              		.loc 1 173 0
  80 0014 01EB4205 		add	r5, r1, r2, lsl #1
  81 0018 11F81240 		ldrb	r4, [r1, r2, lsl #1]	@ zero_extendqisi2
  82 001c 6D78     		ldrb	r5, [r5, #1]	@ zero_extendqisi2
  83 001e A555     		strb	r5, [r4, r6]
 174:.\Generated_Source\PSoC5/cyfitter_cfg.c **** 			j++;
  84              		.loc 1 174 0
  85 0020 0132     		adds	r2, r2, #1
  86              	.LVL7:
 175:.\Generated_Source\PSoC5/cyfitter_cfg.c **** 			count--;
  87              		.loc 1 175 0
  88 0022 013B     		subs	r3, r3, #1
  89              	.LVL8:
  90 0024 DBB2     		uxtb	r3, r3
  91              	.LVL9:
  92              	.L5:
 171:.\Generated_Source\PSoC5/cyfitter_cfg.c **** 		{
  93              		.loc 1 171 0
  94 0026 002B     		cmp	r3, #0
  95 0028 F4D1     		bne	.L6
  96              	.LBE2:
 166:.\Generated_Source\PSoC5/cyfitter_cfg.c **** 	{
  97              		.loc 1 166 0 discriminator 2
  98 002a 0137     		adds	r7, r7, #1
  99              	.LVL10:
 100              	.L4:
 166:.\Generated_Source\PSoC5/cyfitter_cfg.c **** 	{
 101              		.loc 1 166 0 is_stmt 0 discriminator 1
 102 002c 1B2F     		cmp	r7, #27
 103 002e EBD9     		bls	.L7
 176:.\Generated_Source\PSoC5/cyfitter_cfg.c **** 		}
 177:.\Generated_Source\PSoC5/cyfitter_cfg.c **** 	}
 178:.\Generated_Source\PSoC5/cyfitter_cfg.c **** }
 104              		.loc 1 178 0 is_stmt 1
ARM GAS  C:\Users\koseki\AppData\Local\Temp\cc9cuxFl.s 			page 6


 105 0030 F0BC     		pop	{r4, r5, r6, r7}
 106              		.cfi_restore 7
 107              		.cfi_restore 6
 108              		.cfi_restore 5
 109              		.cfi_restore 4
 110              		.cfi_def_cfa_offset 0
 111              	.LVL11:
 112 0032 7047     		bx	lr
 113              		.cfi_endproc
 114              	.LFE4:
 115              		.size	cfg_write_bytes32, .-cfg_write_bytes32
 116              		.section	.text.AnalogSetDefault,"ax",%progbits
 117              		.align	2
 118              		.thumb
 119              		.thumb_func
 120              		.type	AnalogSetDefault, %function
 121              	AnalogSetDefault:
 122              	.LFB6:
 179:.\Generated_Source\PSoC5/cyfitter_cfg.c **** 
 180:.\Generated_Source\PSoC5/cyfitter_cfg.c **** /*******************************************************************************
 181:.\Generated_Source\PSoC5/cyfitter_cfg.c **** * Function Name: ClockSetup
 182:.\Generated_Source\PSoC5/cyfitter_cfg.c **** ********************************************************************************
 183:.\Generated_Source\PSoC5/cyfitter_cfg.c **** *
 184:.\Generated_Source\PSoC5/cyfitter_cfg.c **** * Summary:
 185:.\Generated_Source\PSoC5/cyfitter_cfg.c **** *  Performs the initialization of all of the clocks in the device based on the
 186:.\Generated_Source\PSoC5/cyfitter_cfg.c **** *  settings in the Clock tab of the DWR.  This includes enabling the requested
 187:.\Generated_Source\PSoC5/cyfitter_cfg.c **** *  clocks and setting the necessary dividers to produce the desired frequency. 
 188:.\Generated_Source\PSoC5/cyfitter_cfg.c **** *
 189:.\Generated_Source\PSoC5/cyfitter_cfg.c **** * Parameters:
 190:.\Generated_Source\PSoC5/cyfitter_cfg.c **** *  void
 191:.\Generated_Source\PSoC5/cyfitter_cfg.c **** *
 192:.\Generated_Source\PSoC5/cyfitter_cfg.c **** * Return:
 193:.\Generated_Source\PSoC5/cyfitter_cfg.c **** *  void
 194:.\Generated_Source\PSoC5/cyfitter_cfg.c **** *
 195:.\Generated_Source\PSoC5/cyfitter_cfg.c **** *******************************************************************************/
 196:.\Generated_Source\PSoC5/cyfitter_cfg.c **** static void ClockSetup(void);
 197:.\Generated_Source\PSoC5/cyfitter_cfg.c **** static void ClockSetup(void)
 198:.\Generated_Source\PSoC5/cyfitter_cfg.c **** {
 199:.\Generated_Source\PSoC5/cyfitter_cfg.c **** 	uint32 timeout;
 200:.\Generated_Source\PSoC5/cyfitter_cfg.c **** 	uint8 pllLock;
 201:.\Generated_Source\PSoC5/cyfitter_cfg.c **** 
 202:.\Generated_Source\PSoC5/cyfitter_cfg.c **** 
 203:.\Generated_Source\PSoC5/cyfitter_cfg.c **** 	/* Configure Digital Clocks based on settings from Clock DWR */
 204:.\Generated_Source\PSoC5/cyfitter_cfg.c **** 	CY_SET_XTND_REG16((void CYFAR *)(CYREG_CLKDIST_DCFG0_CFG0), 0x0000u);
 205:.\Generated_Source\PSoC5/cyfitter_cfg.c **** 	CY_SET_XTND_REG8((void CYFAR *)(CYREG_CLKDIST_DCFG0_CFG0 + 0x2u), 0x19u);
 206:.\Generated_Source\PSoC5/cyfitter_cfg.c **** 	CY_SET_XTND_REG16((void CYFAR *)(CYREG_CLKDIST_DCFG1_CFG0), 0x0041u);
 207:.\Generated_Source\PSoC5/cyfitter_cfg.c **** 	CY_SET_XTND_REG8((void CYFAR *)(CYREG_CLKDIST_DCFG1_CFG0 + 0x2u), 0x18u);
 208:.\Generated_Source\PSoC5/cyfitter_cfg.c **** 	CY_SET_XTND_REG16((void CYFAR *)(CYREG_CLKDIST_DCFG2_CFG0), 0x0338u);
 209:.\Generated_Source\PSoC5/cyfitter_cfg.c **** 	CY_SET_XTND_REG8((void CYFAR *)(CYREG_CLKDIST_DCFG2_CFG0 + 0x2u), 0x18u);
 210:.\Generated_Source\PSoC5/cyfitter_cfg.c **** 	CY_SET_XTND_REG16((void CYFAR *)(CYREG_CLKDIST_DCFG3_CFG0), 0xFFFFu);
 211:.\Generated_Source\PSoC5/cyfitter_cfg.c **** 	CY_SET_XTND_REG8((void CYFAR *)(CYREG_CLKDIST_DCFG3_CFG0 + 0x2u), 0x18u);
 212:.\Generated_Source\PSoC5/cyfitter_cfg.c **** 
 213:.\Generated_Source\PSoC5/cyfitter_cfg.c **** 	/* Configure ILO based on settings from Clock DWR */
 214:.\Generated_Source\PSoC5/cyfitter_cfg.c **** 	CY_SET_XTND_REG8((void CYFAR *)(CYREG_SLOWCLK_ILO_CR0), 0x06u);
 215:.\Generated_Source\PSoC5/cyfitter_cfg.c **** 	CY_SET_XTND_REG8((void CYFAR *)(CYREG_CLKDIST_CR), 0x08u);
 216:.\Generated_Source\PSoC5/cyfitter_cfg.c **** 
 217:.\Generated_Source\PSoC5/cyfitter_cfg.c **** 	/* Configure IMO based on settings from Clock DWR */
ARM GAS  C:\Users\koseki\AppData\Local\Temp\cc9cuxFl.s 			page 7


 218:.\Generated_Source\PSoC5/cyfitter_cfg.c **** 	CY_SET_XTND_REG8((void CYFAR *)(CYREG_FASTCLK_IMO_CR), 0x52u);
 219:.\Generated_Source\PSoC5/cyfitter_cfg.c **** 	CY_SET_XTND_REG8((void CYFAR *)(CYREG_IMO_TR1), (CY_GET_XTND_REG8((void CYFAR *)CYREG_FLSHID_CUST_
 220:.\Generated_Source\PSoC5/cyfitter_cfg.c **** 
 221:.\Generated_Source\PSoC5/cyfitter_cfg.c **** 	/* Configure PLL based on settings from Clock DWR */
 222:.\Generated_Source\PSoC5/cyfitter_cfg.c **** 	CY_SET_XTND_REG16((void CYFAR *)(CYREG_FASTCLK_PLL_P), 0x0B21u);
 223:.\Generated_Source\PSoC5/cyfitter_cfg.c **** 	CY_SET_XTND_REG16((void CYFAR *)(CYREG_FASTCLK_PLL_CFG0), 0x1251u);
 224:.\Generated_Source\PSoC5/cyfitter_cfg.c **** 	/* Wait up to 250us for the PLL to lock */
 225:.\Generated_Source\PSoC5/cyfitter_cfg.c **** 	pllLock = 0u;
 226:.\Generated_Source\PSoC5/cyfitter_cfg.c **** 	for (timeout = 250u / 10u; (timeout > 0u) && (pllLock != 0x03u); timeout--)
 227:.\Generated_Source\PSoC5/cyfitter_cfg.c **** 	{ 
 228:.\Generated_Source\PSoC5/cyfitter_cfg.c **** 		pllLock = 0x03u & ((uint8)((uint8)pllLock << 1) | ((CY_GET_XTND_REG8((void CYFAR *)CYREG_FASTCLK_
 229:.\Generated_Source\PSoC5/cyfitter_cfg.c **** 		CyDelayCycles(10u * 48u); /* Delay 10us based on 48MHz clock */
 230:.\Generated_Source\PSoC5/cyfitter_cfg.c **** 	}
 231:.\Generated_Source\PSoC5/cyfitter_cfg.c **** 	/* If we ran out of time the PLL didn't lock so go to the error function */
 232:.\Generated_Source\PSoC5/cyfitter_cfg.c **** 	if (timeout == 0u)
 233:.\Generated_Source\PSoC5/cyfitter_cfg.c **** 	{
 234:.\Generated_Source\PSoC5/cyfitter_cfg.c **** 		CyClockStartupError(CYCLOCKSTART_PLL_ERROR);
 235:.\Generated_Source\PSoC5/cyfitter_cfg.c **** 	}
 236:.\Generated_Source\PSoC5/cyfitter_cfg.c **** 
 237:.\Generated_Source\PSoC5/cyfitter_cfg.c **** 	/* Configure Bus/Master Clock based on settings from Clock DWR */
 238:.\Generated_Source\PSoC5/cyfitter_cfg.c **** 	CY_SET_XTND_REG16((void CYFAR *)(CYREG_CLKDIST_MSTR0), 0x0100u);
 239:.\Generated_Source\PSoC5/cyfitter_cfg.c **** 	CY_SET_XTND_REG8((void CYFAR *)(CYREG_CLKDIST_MSTR0), 0x07u);
 240:.\Generated_Source\PSoC5/cyfitter_cfg.c **** 	CY_SET_XTND_REG8((void CYFAR *)(CYREG_CLKDIST_BCFG0), 0x00u);
 241:.\Generated_Source\PSoC5/cyfitter_cfg.c **** 	CY_SET_XTND_REG8((void CYFAR *)(CYREG_CLKDIST_BCFG2), 0x48u);
 242:.\Generated_Source\PSoC5/cyfitter_cfg.c **** 	CY_SET_XTND_REG8((void CYFAR *)(CYREG_CLKDIST_MSTR0), 0x00u);
 243:.\Generated_Source\PSoC5/cyfitter_cfg.c **** 
 244:.\Generated_Source\PSoC5/cyfitter_cfg.c **** 	/* Configure USB Clock based on settings from Clock DWR */
 245:.\Generated_Source\PSoC5/cyfitter_cfg.c **** 	CY_SET_XTND_REG8((void CYFAR *)(CYREG_CLKDIST_UCFG), 0x00u);
 246:.\Generated_Source\PSoC5/cyfitter_cfg.c **** 	CY_SET_XTND_REG8((void CYFAR *)(CYREG_CLKDIST_LD), 0x02u);
 247:.\Generated_Source\PSoC5/cyfitter_cfg.c **** 
 248:.\Generated_Source\PSoC5/cyfitter_cfg.c **** 	CY_SET_XTND_REG8((void CYFAR *)(CYREG_PM_ACT_CFG2), ((CY_GET_XTND_REG8((void CYFAR *)CYREG_PM_ACT_
 249:.\Generated_Source\PSoC5/cyfitter_cfg.c **** }
 250:.\Generated_Source\PSoC5/cyfitter_cfg.c **** 
 251:.\Generated_Source\PSoC5/cyfitter_cfg.c **** 
 252:.\Generated_Source\PSoC5/cyfitter_cfg.c **** /* Analog API Functions */
 253:.\Generated_Source\PSoC5/cyfitter_cfg.c **** 
 254:.\Generated_Source\PSoC5/cyfitter_cfg.c **** 
 255:.\Generated_Source\PSoC5/cyfitter_cfg.c **** /*******************************************************************************
 256:.\Generated_Source\PSoC5/cyfitter_cfg.c **** * Function Name: AnalogSetDefault
 257:.\Generated_Source\PSoC5/cyfitter_cfg.c **** ********************************************************************************
 258:.\Generated_Source\PSoC5/cyfitter_cfg.c **** *
 259:.\Generated_Source\PSoC5/cyfitter_cfg.c **** * Summary:
 260:.\Generated_Source\PSoC5/cyfitter_cfg.c **** *  Sets up the analog portions of the chip to default values based on chip
 261:.\Generated_Source\PSoC5/cyfitter_cfg.c **** *  configuration options from the project.
 262:.\Generated_Source\PSoC5/cyfitter_cfg.c **** *
 263:.\Generated_Source\PSoC5/cyfitter_cfg.c **** * Parameters:
 264:.\Generated_Source\PSoC5/cyfitter_cfg.c **** *  void
 265:.\Generated_Source\PSoC5/cyfitter_cfg.c **** *
 266:.\Generated_Source\PSoC5/cyfitter_cfg.c **** * Return:
 267:.\Generated_Source\PSoC5/cyfitter_cfg.c **** *  void
 268:.\Generated_Source\PSoC5/cyfitter_cfg.c **** *
 269:.\Generated_Source\PSoC5/cyfitter_cfg.c **** *******************************************************************************/
 270:.\Generated_Source\PSoC5/cyfitter_cfg.c **** static void AnalogSetDefault(void);
 271:.\Generated_Source\PSoC5/cyfitter_cfg.c **** static void AnalogSetDefault(void)
 272:.\Generated_Source\PSoC5/cyfitter_cfg.c **** {
 123              		.loc 1 272 0
 124              		.cfi_startproc
ARM GAS  C:\Users\koseki\AppData\Local\Temp\cc9cuxFl.s 			page 8


 125              		@ args = 0, pretend = 0, frame = 0
 126              		@ frame_needed = 0, uses_anonymous_args = 0
 127              		@ link register save eliminated.
 273:.\Generated_Source\PSoC5/cyfitter_cfg.c **** 	uint8 bg_xover_inl_trim = CY_GET_XTND_REG8((void CYFAR *)(CYREG_FLSHID_MFG_CFG_BG_XOVER_INL_TRIM +
 128              		.loc 1 273 0
 129 0000 0A4B     		ldr	r3, .L10
 130 0002 1B78     		ldrb	r3, [r3]	@ zero_extendqisi2
 131 0004 DBB2     		uxtb	r3, r3
 132              	.LVL12:
 274:.\Generated_Source\PSoC5/cyfitter_cfg.c **** 	CY_SET_XTND_REG8((void CYFAR *)(CYREG_BG_DFT0), (bg_xover_inl_trim & 0x07u));
 133              		.loc 1 274 0
 134 0006 03F00701 		and	r1, r3, #7
 135 000a 094A     		ldr	r2, .L10+4
 136 000c 1170     		strb	r1, [r2]
 275:.\Generated_Source\PSoC5/cyfitter_cfg.c **** 	CY_SET_XTND_REG8((void CYFAR *)(CYREG_BG_DFT1), ((bg_xover_inl_trim >> 4) & 0x0Fu));
 137              		.loc 1 275 0
 138 000e 1B09     		lsrs	r3, r3, #4
 139              	.LVL13:
 140 0010 0132     		adds	r2, r2, #1
 141 0012 1370     		strb	r3, [r2]
 276:.\Generated_Source\PSoC5/cyfitter_cfg.c **** 	CY_SET_XTND_REG8((void CYFAR *)CYREG_PRT0_AG, 0x01u);
 142              		.loc 1 276 0
 143 0014 0122     		movs	r2, #1
 144 0016 074B     		ldr	r3, .L10+8
 145 0018 1A70     		strb	r2, [r3]
 277:.\Generated_Source\PSoC5/cyfitter_cfg.c **** 	CY_SET_XTND_REG8((void CYFAR *)CYREG_DAC2_SW0, 0x10u);
 146              		.loc 1 277 0
 147 001a 1022     		movs	r2, #16
 148 001c 03F68313 		addw	r3, r3, #2435
 149 0020 1A70     		strb	r2, [r3]
 278:.\Generated_Source\PSoC5/cyfitter_cfg.c **** 	CY_SET_XTND_REG8((void CYFAR *)CYREG_PUMP_CR0, 0x44u);
 150              		.loc 1 278 0
 151 0022 4422     		movs	r2, #68
 152 0024 A3F21A23 		subw	r3, r3, #538
 153 0028 1A70     		strb	r2, [r3]
 154 002a 7047     		bx	lr
 155              	.L11:
 156              		.align	2
 157              	.L10:
 158 002c CF010049 		.word	1224737231
 159 0030 6E580040 		.word	1073764462
 160 0034 0D510040 		.word	1073762573
 161              		.cfi_endproc
 162              	.LFE6:
 163              		.size	AnalogSetDefault, .-AnalogSetDefault
 164              		.section	.text.ClockSetup,"ax",%progbits
 165              		.align	2
 166              		.thumb
 167              		.thumb_func
 168              		.type	ClockSetup, %function
 169              	ClockSetup:
 170              	.LFB5:
 198:.\Generated_Source\PSoC5/cyfitter_cfg.c **** 	uint32 timeout;
 171              		.loc 1 198 0
 172              		.cfi_startproc
 173              		@ args = 0, pretend = 0, frame = 0
 174              		@ frame_needed = 0, uses_anonymous_args = 0
ARM GAS  C:\Users\koseki\AppData\Local\Temp\cc9cuxFl.s 			page 9


 175 0000 38B5     		push	{r3, r4, r5, lr}
 176              		.cfi_def_cfa_offset 16
 177              		.cfi_offset 3, -16
 178              		.cfi_offset 4, -12
 179              		.cfi_offset 5, -8
 180              		.cfi_offset 14, -4
 204:.\Generated_Source\PSoC5/cyfitter_cfg.c **** 	CY_SET_XTND_REG8((void CYFAR *)(CYREG_CLKDIST_DCFG0_CFG0 + 0x2u), 0x19u);
 181              		.loc 1 204 0
 182 0002 0024     		movs	r4, #0
 183 0004 2D4B     		ldr	r3, .L18
 184 0006 1C80     		strh	r4, [r3]	@ movhi
 205:.\Generated_Source\PSoC5/cyfitter_cfg.c **** 	CY_SET_XTND_REG16((void CYFAR *)(CYREG_CLKDIST_DCFG1_CFG0), 0x0041u);
 185              		.loc 1 205 0
 186 0008 1925     		movs	r5, #25
 187 000a 0233     		adds	r3, r3, #2
 188 000c 1D70     		strb	r5, [r3]
 206:.\Generated_Source\PSoC5/cyfitter_cfg.c **** 	CY_SET_XTND_REG8((void CYFAR *)(CYREG_CLKDIST_DCFG1_CFG0 + 0x2u), 0x18u);
 189              		.loc 1 206 0
 190 000e 4122     		movs	r2, #65
 191 0010 0233     		adds	r3, r3, #2
 192 0012 1A80     		strh	r2, [r3]	@ movhi
 207:.\Generated_Source\PSoC5/cyfitter_cfg.c **** 	CY_SET_XTND_REG16((void CYFAR *)(CYREG_CLKDIST_DCFG2_CFG0), 0x0338u);
 193              		.loc 1 207 0
 194 0014 1823     		movs	r3, #24
 195 0016 2A4A     		ldr	r2, .L18+4
 196 0018 1370     		strb	r3, [r2]
 208:.\Generated_Source\PSoC5/cyfitter_cfg.c **** 	CY_SET_XTND_REG8((void CYFAR *)(CYREG_CLKDIST_DCFG2_CFG0 + 0x2u), 0x18u);
 197              		.loc 1 208 0
 198 001a 4FF44E71 		mov	r1, #824
 199 001e 0232     		adds	r2, r2, #2
 200 0020 1180     		strh	r1, [r2]	@ movhi
 209:.\Generated_Source\PSoC5/cyfitter_cfg.c **** 	CY_SET_XTND_REG16((void CYFAR *)(CYREG_CLKDIST_DCFG3_CFG0), 0xFFFFu);
 201              		.loc 1 209 0
 202 0022 0232     		adds	r2, r2, #2
 203 0024 1370     		strb	r3, [r2]
 210:.\Generated_Source\PSoC5/cyfitter_cfg.c **** 	CY_SET_XTND_REG8((void CYFAR *)(CYREG_CLKDIST_DCFG3_CFG0 + 0x2u), 0x18u);
 204              		.loc 1 210 0
 205 0026 4FF6FF71 		movw	r1, #65535
 206 002a 0232     		adds	r2, r2, #2
 207 002c 1180     		strh	r1, [r2]	@ movhi
 211:.\Generated_Source\PSoC5/cyfitter_cfg.c **** 
 208              		.loc 1 211 0
 209 002e 0232     		adds	r2, r2, #2
 210 0030 1370     		strb	r3, [r2]
 214:.\Generated_Source\PSoC5/cyfitter_cfg.c **** 	CY_SET_XTND_REG8((void CYFAR *)(CYREG_CLKDIST_CR), 0x08u);
 211              		.loc 1 214 0
 212 0032 0622     		movs	r2, #6
 213 0034 234B     		ldr	r3, .L18+8
 214 0036 1A70     		strb	r2, [r3]
 215:.\Generated_Source\PSoC5/cyfitter_cfg.c **** 
 215              		.loc 1 215 0
 216 0038 0822     		movs	r2, #8
 217 003a 4FF04023 		mov	r3, #1073758208
 218 003e 1A70     		strb	r2, [r3]
 218:.\Generated_Source\PSoC5/cyfitter_cfg.c **** 	CY_SET_XTND_REG8((void CYFAR *)(CYREG_IMO_TR1), (CY_GET_XTND_REG8((void CYFAR *)CYREG_FLSHID_CUST_
 219              		.loc 1 218 0
 220 0040 5222     		movs	r2, #82
ARM GAS  C:\Users\koseki\AppData\Local\Temp\cc9cuxFl.s 			page 10


 221 0042 03F50073 		add	r3, r3, #512
 222 0046 1A70     		strb	r2, [r3]
 219:.\Generated_Source\PSoC5/cyfitter_cfg.c **** 
 223              		.loc 1 219 0
 224 0048 1F4B     		ldr	r3, .L18+12
 225 004a 1B78     		ldrb	r3, [r3]	@ zero_extendqisi2
 226 004c DBB2     		uxtb	r3, r3
 227 004e 1F4A     		ldr	r2, .L18+16
 228 0050 1370     		strb	r3, [r2]
 222:.\Generated_Source\PSoC5/cyfitter_cfg.c **** 	CY_SET_XTND_REG16((void CYFAR *)(CYREG_FASTCLK_PLL_CFG0), 0x1251u);
 229              		.loc 1 222 0
 230 0052 40F62132 		movw	r2, #2849
 231 0056 1E4B     		ldr	r3, .L18+20
 232 0058 1A80     		strh	r2, [r3]	@ movhi
 223:.\Generated_Source\PSoC5/cyfitter_cfg.c **** 	/* Wait up to 250us for the PLL to lock */
 233              		.loc 1 223 0
 234 005a 41F25122 		movw	r2, #4689
 235 005e 023B     		subs	r3, r3, #2
 236 0060 1A80     		strh	r2, [r3]	@ movhi
 237              	.LVL14:
 226:.\Generated_Source\PSoC5/cyfitter_cfg.c **** 	{ 
 238              		.loc 1 226 0
 239 0062 0CE0     		b	.L13
 240              	.LVL15:
 241              	.L15:
 228:.\Generated_Source\PSoC5/cyfitter_cfg.c **** 		CyDelayCycles(10u * 48u); /* Delay 10us based on 48MHz clock */
 242              		.loc 1 228 0 discriminator 4
 243 0064 1B4B     		ldr	r3, .L18+24
 244 0066 1B78     		ldrb	r3, [r3]	@ zero_extendqisi2
 245 0068 03F00103 		and	r3, r3, #1
 246 006c 43EA4404 		orr	r4, r3, r4, lsl #1
 247              	.LVL16:
 248 0070 04F00304 		and	r4, r4, #3
 249              	.LVL17:
 229:.\Generated_Source\PSoC5/cyfitter_cfg.c **** 	}
 250              		.loc 1 229 0 discriminator 4
 251 0074 4FF4F070 		mov	r0, #480
 252 0078 FFF7FEFF 		bl	CyDelayCycles
 253              	.LVL18:
 226:.\Generated_Source\PSoC5/cyfitter_cfg.c **** 	{ 
 254              		.loc 1 226 0 discriminator 4
 255 007c 013D     		subs	r5, r5, #1
 256              	.LVL19:
 257              	.L13:
 226:.\Generated_Source\PSoC5/cyfitter_cfg.c **** 	{ 
 258              		.loc 1 226 0 is_stmt 0 discriminator 1
 259 007e 0DB1     		cbz	r5, .L14
 226:.\Generated_Source\PSoC5/cyfitter_cfg.c **** 	{ 
 260              		.loc 1 226 0 discriminator 3
 261 0080 032C     		cmp	r4, #3
 262 0082 EFD1     		bne	.L15
 263              	.L14:
 232:.\Generated_Source\PSoC5/cyfitter_cfg.c **** 	{
 264              		.loc 1 232 0 is_stmt 1
 265 0084 15B9     		cbnz	r5, .L16
 234:.\Generated_Source\PSoC5/cyfitter_cfg.c **** 	}
 266              		.loc 1 234 0
ARM GAS  C:\Users\koseki\AppData\Local\Temp\cc9cuxFl.s 			page 11


 267 0086 0320     		movs	r0, #3
 268 0088 FFF7FEFF 		bl	CyClockStartupError
 269              	.LVL20:
 270              	.L16:
 238:.\Generated_Source\PSoC5/cyfitter_cfg.c **** 	CY_SET_XTND_REG8((void CYFAR *)(CYREG_CLKDIST_MSTR0), 0x07u);
 271              		.loc 1 238 0
 272 008c 124A     		ldr	r2, .L18+28
 273 008e 4FF48073 		mov	r3, #256
 274 0092 1380     		strh	r3, [r2]	@ movhi
 239:.\Generated_Source\PSoC5/cyfitter_cfg.c **** 	CY_SET_XTND_REG8((void CYFAR *)(CYREG_CLKDIST_BCFG0), 0x00u);
 275              		.loc 1 239 0
 276 0094 0723     		movs	r3, #7
 277 0096 1370     		strb	r3, [r2]
 240:.\Generated_Source\PSoC5/cyfitter_cfg.c **** 	CY_SET_XTND_REG8((void CYFAR *)(CYREG_CLKDIST_BCFG2), 0x48u);
 278              		.loc 1 240 0
 279 0098 0023     		movs	r3, #0
 280 009a 1049     		ldr	r1, .L18+32
 281 009c 0B70     		strb	r3, [r1]
 241:.\Generated_Source\PSoC5/cyfitter_cfg.c **** 	CY_SET_XTND_REG8((void CYFAR *)(CYREG_CLKDIST_MSTR0), 0x00u);
 282              		.loc 1 241 0
 283 009e 4820     		movs	r0, #72
 284 00a0 0231     		adds	r1, r1, #2
 285 00a2 0870     		strb	r0, [r1]
 242:.\Generated_Source\PSoC5/cyfitter_cfg.c **** 
 286              		.loc 1 242 0
 287 00a4 1370     		strb	r3, [r2]
 245:.\Generated_Source\PSoC5/cyfitter_cfg.c **** 	CY_SET_XTND_REG8((void CYFAR *)(CYREG_CLKDIST_LD), 0x02u);
 288              		.loc 1 245 0
 289 00a6 0532     		adds	r2, r2, #5
 290 00a8 1370     		strb	r3, [r2]
 246:.\Generated_Source\PSoC5/cyfitter_cfg.c **** 
 291              		.loc 1 246 0
 292 00aa 0222     		movs	r2, #2
 293 00ac 0C4B     		ldr	r3, .L18+36
 294 00ae 1A70     		strb	r2, [r3]
 248:.\Generated_Source\PSoC5/cyfitter_cfg.c **** }
 295              		.loc 1 248 0
 296 00b0 0C4A     		ldr	r2, .L18+40
 297 00b2 1378     		ldrb	r3, [r2]	@ zero_extendqisi2
 298 00b4 43F00F03 		orr	r3, r3, #15
 299 00b8 1370     		strb	r3, [r2]
 300 00ba 38BD     		pop	{r3, r4, r5, pc}
 301              	.LVL21:
 302              	.L19:
 303              		.align	2
 304              	.L18:
 305 00bc 80400040 		.word	1073758336
 306 00c0 86400040 		.word	1073758342
 307 00c4 00430040 		.word	1073758976
 308 00c8 0F010049 		.word	1224737039
 309 00cc A1460040 		.word	1073759905
 310 00d0 22420040 		.word	1073758754
 311 00d4 25420040 		.word	1073758757
 312 00d8 04400040 		.word	1073758212
 313 00dc 06400040 		.word	1073758214
 314 00e0 01400040 		.word	1073758209
 315 00e4 A2430040 		.word	1073759138
ARM GAS  C:\Users\koseki\AppData\Local\Temp\cc9cuxFl.s 			page 12


 316              		.cfi_endproc
 317              	.LFE5:
 318              		.size	ClockSetup, .-ClockSetup
 319              		.section	.text.CYMEMZERO,"ax",%progbits
 320              		.align	2
 321              		.thumb
 322              		.thumb_func
 323              		.type	CYMEMZERO, %function
 324              	CYMEMZERO:
 325              	.LFB0:
  63:.\Generated_Source\PSoC5/cyfitter_cfg.c **** 	(void)memset(s, 0, n);
 326              		.loc 1 63 0
 327              		.cfi_startproc
 328              		@ args = 0, pretend = 0, frame = 0
 329              		@ frame_needed = 0, uses_anonymous_args = 0
 330              	.LVL22:
 331 0000 08B5     		push	{r3, lr}
 332              		.cfi_def_cfa_offset 8
 333              		.cfi_offset 3, -8
 334              		.cfi_offset 14, -4
 335 0002 0A46     		mov	r2, r1
  64:.\Generated_Source\PSoC5/cyfitter_cfg.c **** }
 336              		.loc 1 64 0
 337 0004 0021     		movs	r1, #0
 338              	.LVL23:
 339 0006 FFF7FEFF 		bl	memset
 340              	.LVL24:
 341 000a 08BD     		pop	{r3, pc}
 342              		.cfi_endproc
 343              	.LFE0:
 344              		.size	CYMEMZERO, .-CYMEMZERO
 345              		.section	.text.CYCONFIGCPY,"ax",%progbits
 346              		.align	2
 347              		.thumb
 348              		.thumb_func
 349              		.type	CYCONFIGCPY, %function
 350              	CYCONFIGCPY:
 351              	.LFB1:
  70:.\Generated_Source\PSoC5/cyfitter_cfg.c **** 	(void)memcpy(dest, src, n);
 352              		.loc 1 70 0
 353              		.cfi_startproc
 354              		@ args = 0, pretend = 0, frame = 0
 355              		@ frame_needed = 0, uses_anonymous_args = 0
 356              	.LVL25:
 357 0000 08B5     		push	{r3, lr}
 358              		.cfi_def_cfa_offset 8
 359              		.cfi_offset 3, -8
 360              		.cfi_offset 14, -4
  71:.\Generated_Source\PSoC5/cyfitter_cfg.c **** }
 361              		.loc 1 71 0
 362 0002 FFF7FEFF 		bl	memcpy
 363              	.LVL26:
 364 0006 08BD     		pop	{r3, pc}
 365              		.cfi_endproc
 366              	.LFE1:
 367              		.size	CYCONFIGCPY, .-CYCONFIGCPY
 368              		.section	.text.SetAnalogRoutingPumps,"ax",%progbits
ARM GAS  C:\Users\koseki\AppData\Local\Temp\cc9cuxFl.s 			page 13


 369              		.align	2
 370              		.global	SetAnalogRoutingPumps
 371              		.thumb
 372              		.thumb_func
 373              		.type	SetAnalogRoutingPumps, %function
 374              	SetAnalogRoutingPumps:
 375              	.LFB7:
 279:.\Generated_Source\PSoC5/cyfitter_cfg.c **** }
 280:.\Generated_Source\PSoC5/cyfitter_cfg.c **** 
 281:.\Generated_Source\PSoC5/cyfitter_cfg.c **** 
 282:.\Generated_Source\PSoC5/cyfitter_cfg.c **** /*******************************************************************************
 283:.\Generated_Source\PSoC5/cyfitter_cfg.c **** * Function Name: SetAnalogRoutingPumps
 284:.\Generated_Source\PSoC5/cyfitter_cfg.c **** ********************************************************************************
 285:.\Generated_Source\PSoC5/cyfitter_cfg.c **** *
 286:.\Generated_Source\PSoC5/cyfitter_cfg.c **** * Summary:
 287:.\Generated_Source\PSoC5/cyfitter_cfg.c **** * Enables or disables the analog pumps feeding analog routing switches.
 288:.\Generated_Source\PSoC5/cyfitter_cfg.c **** * Intended to be called at startup, based on the Vdda system configuration;
 289:.\Generated_Source\PSoC5/cyfitter_cfg.c **** * may be called during operation when the user informs us that the Vdda voltage
 290:.\Generated_Source\PSoC5/cyfitter_cfg.c **** * crossed the pump threshold.
 291:.\Generated_Source\PSoC5/cyfitter_cfg.c **** *
 292:.\Generated_Source\PSoC5/cyfitter_cfg.c **** * Parameters:
 293:.\Generated_Source\PSoC5/cyfitter_cfg.c **** *  enabled - 1 to enable the pumps, 0 to disable the pumps
 294:.\Generated_Source\PSoC5/cyfitter_cfg.c **** *
 295:.\Generated_Source\PSoC5/cyfitter_cfg.c **** * Return:
 296:.\Generated_Source\PSoC5/cyfitter_cfg.c **** *  void
 297:.\Generated_Source\PSoC5/cyfitter_cfg.c **** *
 298:.\Generated_Source\PSoC5/cyfitter_cfg.c **** *******************************************************************************/
 299:.\Generated_Source\PSoC5/cyfitter_cfg.c **** void SetAnalogRoutingPumps(uint8 enabled)
 300:.\Generated_Source\PSoC5/cyfitter_cfg.c **** {
 376              		.loc 1 300 0
 377              		.cfi_startproc
 378              		@ args = 0, pretend = 0, frame = 0
 379              		@ frame_needed = 0, uses_anonymous_args = 0
 380              		@ link register save eliminated.
 381              	.LVL27:
 301:.\Generated_Source\PSoC5/cyfitter_cfg.c **** 	uint8 regValue = CY_GET_XTND_REG8((void CYFAR *)CYREG_PUMP_CR0);
 382              		.loc 1 301 0
 383 0000 054B     		ldr	r3, .L27
 384 0002 1B78     		ldrb	r3, [r3]	@ zero_extendqisi2
 385 0004 DBB2     		uxtb	r3, r3
 386              	.LVL28:
 302:.\Generated_Source\PSoC5/cyfitter_cfg.c **** 	if (enabled != 0u)
 387              		.loc 1 302 0
 388 0006 10B1     		cbz	r0, .L25
 303:.\Generated_Source\PSoC5/cyfitter_cfg.c **** 	{
 304:.\Generated_Source\PSoC5/cyfitter_cfg.c **** 		regValue |= 0x22u;
 389              		.loc 1 304 0
 390 0008 43F02203 		orr	r3, r3, #34
 391              	.LVL29:
 392 000c 01E0     		b	.L26
 393              	.L25:
 305:.\Generated_Source\PSoC5/cyfitter_cfg.c **** 	}
 306:.\Generated_Source\PSoC5/cyfitter_cfg.c **** 	else
 307:.\Generated_Source\PSoC5/cyfitter_cfg.c **** 	{
 308:.\Generated_Source\PSoC5/cyfitter_cfg.c **** 		regValue &= (uint8)~0x22u;
 394              		.loc 1 308 0
 395 000e 03F0DD03 		and	r3, r3, #221
ARM GAS  C:\Users\koseki\AppData\Local\Temp\cc9cuxFl.s 			page 14


 396              	.LVL30:
 397              	.L26:
 309:.\Generated_Source\PSoC5/cyfitter_cfg.c **** 	}
 310:.\Generated_Source\PSoC5/cyfitter_cfg.c **** 	CY_SET_XTND_REG8((void CYFAR *)CYREG_PUMP_CR0, regValue);
 398              		.loc 1 310 0
 399 0012 014A     		ldr	r2, .L27
 400 0014 1370     		strb	r3, [r2]
 401 0016 7047     		bx	lr
 402              	.L28:
 403              		.align	2
 404              	.L27:
 405 0018 76580040 		.word	1073764470
 406              		.cfi_endproc
 407              	.LFE7:
 408              		.size	SetAnalogRoutingPumps, .-SetAnalogRoutingPumps
 409              		.section	.text.cyfitter_cfg,"ax",%progbits
 410              		.align	2
 411              		.global	cyfitter_cfg
 412              		.thumb
 413              		.thumb_func
 414              		.type	cyfitter_cfg, %function
 415              	cyfitter_cfg:
 416              	.LFB8:
 311:.\Generated_Source\PSoC5/cyfitter_cfg.c **** }
 312:.\Generated_Source\PSoC5/cyfitter_cfg.c **** 
 313:.\Generated_Source\PSoC5/cyfitter_cfg.c **** #define CY_AMUX_UNUSED CYREG_BOOST_SR
 314:.\Generated_Source\PSoC5/cyfitter_cfg.c **** 
 315:.\Generated_Source\PSoC5/cyfitter_cfg.c **** 
 316:.\Generated_Source\PSoC5/cyfitter_cfg.c **** /*******************************************************************************
 317:.\Generated_Source\PSoC5/cyfitter_cfg.c **** * Function Name: cyfitter_cfg
 318:.\Generated_Source\PSoC5/cyfitter_cfg.c **** ********************************************************************************
 319:.\Generated_Source\PSoC5/cyfitter_cfg.c **** * Summary:
 320:.\Generated_Source\PSoC5/cyfitter_cfg.c **** *  This function is called by the start-up code for the selected device. It
 321:.\Generated_Source\PSoC5/cyfitter_cfg.c **** *  performs all of the necessary device configuration based on the design
 322:.\Generated_Source\PSoC5/cyfitter_cfg.c **** *  settings.  This includes settings from the Design Wide Resources (DWR) such
 323:.\Generated_Source\PSoC5/cyfitter_cfg.c **** *  as Clocks and Pins as well as any component configuration that is necessary.
 324:.\Generated_Source\PSoC5/cyfitter_cfg.c **** *
 325:.\Generated_Source\PSoC5/cyfitter_cfg.c **** * Parameters:  
 326:.\Generated_Source\PSoC5/cyfitter_cfg.c **** *   void
 327:.\Generated_Source\PSoC5/cyfitter_cfg.c **** *
 328:.\Generated_Source\PSoC5/cyfitter_cfg.c **** * Return:
 329:.\Generated_Source\PSoC5/cyfitter_cfg.c **** *   void
 330:.\Generated_Source\PSoC5/cyfitter_cfg.c **** *
 331:.\Generated_Source\PSoC5/cyfitter_cfg.c **** *******************************************************************************/
 332:.\Generated_Source\PSoC5/cyfitter_cfg.c **** 
 333:.\Generated_Source\PSoC5/cyfitter_cfg.c **** void cyfitter_cfg(void)
 334:.\Generated_Source\PSoC5/cyfitter_cfg.c **** {
 417              		.loc 1 334 0
 418              		.cfi_startproc
 419              		@ args = 0, pretend = 0, frame = 0
 420              		@ frame_needed = 0, uses_anonymous_args = 0
 421 0000 10B5     		push	{r4, lr}
 422              		.cfi_def_cfa_offset 8
 423              		.cfi_offset 4, -8
 424              		.cfi_offset 14, -4
 335:.\Generated_Source\PSoC5/cyfitter_cfg.c **** #ifdef CYGlobalIntDisable
 336:.\Generated_Source\PSoC5/cyfitter_cfg.c **** 	/* Disable interrupts by default. Let user enable if/when they want. */
ARM GAS  C:\Users\koseki\AppData\Local\Temp\cc9cuxFl.s 			page 15


 337:.\Generated_Source\PSoC5/cyfitter_cfg.c **** 	CYGlobalIntDisable
 425              		.loc 1 337 0
 426              	@ 337 ".\Generated_Source\PSoC5\cyfitter_cfg.c" 1
 427 0002 72B6     		CPSID   i
 428              	@ 0 "" 2
 338:.\Generated_Source\PSoC5/cyfitter_cfg.c **** #endif
 339:.\Generated_Source\PSoC5/cyfitter_cfg.c **** 
 340:.\Generated_Source\PSoC5/cyfitter_cfg.c **** 
 341:.\Generated_Source\PSoC5/cyfitter_cfg.c **** 	/* Set Flash Cycles based on max possible frequency in case a glitch occurs during ClockSetup(). *
 342:.\Generated_Source\PSoC5/cyfitter_cfg.c **** 	CY_SET_XTND_REG8((void CYFAR *)(CYREG_CACHE_CC_CTL), (((CYDEV_INSTRUCT_CACHE_ENABLED) != 0) ? 0x61
 429              		.loc 1 342 0
 430              		.thumb
 431 0004 2D4C     		ldr	r4, .L33
 432 0006 6123     		movs	r3, #97
 433 0008 2370     		strb	r3, [r4]
 343:.\Generated_Source\PSoC5/cyfitter_cfg.c **** 	/* Setup clocks based on selections from Clock DWR */
 344:.\Generated_Source\PSoC5/cyfitter_cfg.c **** 	ClockSetup();
 434              		.loc 1 344 0
 435 000a FFF7FEFF 		bl	ClockSetup
 436              	.LVL31:
 345:.\Generated_Source\PSoC5/cyfitter_cfg.c **** 	/* Set Flash Cycles based on newly configured 66.00MHz Bus Clock. */
 346:.\Generated_Source\PSoC5/cyfitter_cfg.c **** 	CY_SET_XTND_REG8((void CYFAR *)(CYREG_CACHE_CC_CTL), (((CYDEV_INSTRUCT_CACHE_ENABLED) != 0) ? 0x01
 437              		.loc 1 346 0
 438 000e 0123     		movs	r3, #1
 439 0010 2370     		strb	r3, [r4]
 347:.\Generated_Source\PSoC5/cyfitter_cfg.c **** 	/* Enable/Disable Debug functionality based on settings from System DWR */
 348:.\Generated_Source\PSoC5/cyfitter_cfg.c **** 	CY_SET_XTND_REG8((void CYFAR *)CYREG_MLOGIC_DEBUG, (CY_GET_XTND_REG8((void CYFAR *)CYREG_MLOGIC_DE
 440              		.loc 1 348 0
 441 0012 2B4A     		ldr	r2, .L33+4
 442 0014 1378     		ldrb	r3, [r2]	@ zero_extendqisi2
 443 0016 43F00403 		orr	r3, r3, #4
 444 001a 1370     		strb	r3, [r2]
 445              	.LVL32:
 446              	.LBB3:
 349:.\Generated_Source\PSoC5/cyfitter_cfg.c **** 
 350:.\Generated_Source\PSoC5/cyfitter_cfg.c **** 	{
 351:.\Generated_Source\PSoC5/cyfitter_cfg.c **** 
 352:.\Generated_Source\PSoC5/cyfitter_cfg.c **** 		CYPACKED typedef struct {
 353:.\Generated_Source\PSoC5/cyfitter_cfg.c **** 			void CYFAR *address;
 354:.\Generated_Source\PSoC5/cyfitter_cfg.c **** 			uint16 size;
 355:.\Generated_Source\PSoC5/cyfitter_cfg.c **** 		} CYPACKED_ATTR cfg_memset_t;
 356:.\Generated_Source\PSoC5/cyfitter_cfg.c **** 
 357:.\Generated_Source\PSoC5/cyfitter_cfg.c **** 		static const cfg_memset_t CYCODE cfg_memset_list [] = {
 358:.\Generated_Source\PSoC5/cyfitter_cfg.c **** 			/* address, size */
 359:.\Generated_Source\PSoC5/cyfitter_cfg.c **** 			{(void CYFAR *)(CYREG_I2C_XCFG), 25u},
 360:.\Generated_Source\PSoC5/cyfitter_cfg.c **** 			{(void CYFAR *)(CYREG_TMR0_CFG0), 12u},
 361:.\Generated_Source\PSoC5/cyfitter_cfg.c **** 			{(void CYFAR *)(CYREG_PRT1_DR), 16u},
 362:.\Generated_Source\PSoC5/cyfitter_cfg.c **** 			{(void CYFAR *)(CYREG_PRT3_DR), 64u},
 363:.\Generated_Source\PSoC5/cyfitter_cfg.c **** 			{(void CYFAR *)(CYREG_PRT15_DR), 16u},
 364:.\Generated_Source\PSoC5/cyfitter_cfg.c **** 			{(void CYFAR *)(CYDEV_UCFG_B0_P0_U0_BASE), 4096u},
 365:.\Generated_Source\PSoC5/cyfitter_cfg.c **** 			{(void CYFAR *)(CYDEV_UCFG_B1_P2_U0_BASE), 2048u},
 366:.\Generated_Source\PSoC5/cyfitter_cfg.c **** 			{(void CYFAR *)(CYDEV_UCFG_DSI0_BASE), 2560u},
 367:.\Generated_Source\PSoC5/cyfitter_cfg.c **** 			{(void CYFAR *)(CYDEV_UCFG_DSI12_BASE), 512u},
 368:.\Generated_Source\PSoC5/cyfitter_cfg.c **** 			{(void CYFAR *)(CYREG_BCTL0_MDCLK_EN), 32u},
 369:.\Generated_Source\PSoC5/cyfitter_cfg.c **** 		};
 370:.\Generated_Source\PSoC5/cyfitter_cfg.c **** 
 371:.\Generated_Source\PSoC5/cyfitter_cfg.c **** 		uint8 CYDATA i;
ARM GAS  C:\Users\koseki\AppData\Local\Temp\cc9cuxFl.s 			page 16


 372:.\Generated_Source\PSoC5/cyfitter_cfg.c **** 
 373:.\Generated_Source\PSoC5/cyfitter_cfg.c **** 		/* Zero out critical memory blocks before beginning configuration */
 374:.\Generated_Source\PSoC5/cyfitter_cfg.c **** 		for (i = 0u; i < (sizeof(cfg_memset_list)/sizeof(cfg_memset_list[0])); i++)
 447              		.loc 1 374 0
 448 001c 0024     		movs	r4, #0
 449 001e 0CE0     		b	.L30
 450              	.LVL33:
 451              	.L31:
 452              	.LBB4:
 375:.\Generated_Source\PSoC5/cyfitter_cfg.c **** 		{
 376:.\Generated_Source\PSoC5/cyfitter_cfg.c **** 			const cfg_memset_t CYCODE * CYDATA ms = &cfg_memset_list[i];
 377:.\Generated_Source\PSoC5/cyfitter_cfg.c **** 			CYMEMZERO(ms->address, (size_t)(uint32)(ms->size));
 453              		.loc 1 377 0 discriminator 3
 454 0020 2849     		ldr	r1, .L33+8
 455 0022 6300     		lsls	r3, r4, #1
 456 0024 1A19     		adds	r2, r3, r4
 457 0026 5200     		lsls	r2, r2, #1
 458 0028 0A44     		add	r2, r2, r1
 459 002a 2344     		add	r3, r3, r4
 460 002c 5B00     		lsls	r3, r3, #1
 461 002e C858     		ldr	r0, [r1, r3]	@ unaligned
 462 0030 9188     		ldrh	r1, [r2, #4]
 463 0032 FFF7FEFF 		bl	CYMEMZERO
 464              	.LVL34:
 465              	.LBE4:
 374:.\Generated_Source\PSoC5/cyfitter_cfg.c **** 		{
 466              		.loc 1 374 0 discriminator 3
 467 0036 0134     		adds	r4, r4, #1
 468              	.LVL35:
 469 0038 E4B2     		uxtb	r4, r4
 470              	.LVL36:
 471              	.L30:
 374:.\Generated_Source\PSoC5/cyfitter_cfg.c **** 		{
 472              		.loc 1 374 0 is_stmt 0 discriminator 1
 473 003a 092C     		cmp	r4, #9
 474 003c F0D9     		bls	.L31
 378:.\Generated_Source\PSoC5/cyfitter_cfg.c **** 		}
 379:.\Generated_Source\PSoC5/cyfitter_cfg.c **** 
 380:.\Generated_Source\PSoC5/cyfitter_cfg.c **** 		cfg_write_bytes32(cy_cfg_addr_table, cy_cfg_data_table);
 475              		.loc 1 380 0 is_stmt 1
 476 003e 4FF09040 		mov	r0, #1207959552
 477 0042 2149     		ldr	r1, .L33+12
 478 0044 FFF7FEFF 		bl	cfg_write_bytes32
 479              	.LVL37:
 381:.\Generated_Source\PSoC5/cyfitter_cfg.c **** 
 382:.\Generated_Source\PSoC5/cyfitter_cfg.c **** 		/* Perform normal device configuration. Order is not critical for these items. */
 383:.\Generated_Source\PSoC5/cyfitter_cfg.c **** 		CYMEMZERO((void CYFAR *)(CYREG_PHUB_CFGMEM0_CFG0), 4u);
 480              		.loc 1 383 0
 481 0048 2048     		ldr	r0, .L33+16
 482 004a 0421     		movs	r1, #4
 483 004c FFF7FEFF 		bl	CYMEMZERO
 484              	.LVL38:
 384:.\Generated_Source\PSoC5/cyfitter_cfg.c **** 		CYMEMZERO((void CYFAR *)(CYREG_PHUB_CFGMEM1_CFG0), 4u);
 485              		.loc 1 384 0
 486 0050 1F48     		ldr	r0, .L33+20
 487 0052 0421     		movs	r1, #4
 488 0054 FFF7FEFF 		bl	CYMEMZERO
ARM GAS  C:\Users\koseki\AppData\Local\Temp\cc9cuxFl.s 			page 17


 489              	.LVL39:
 385:.\Generated_Source\PSoC5/cyfitter_cfg.c **** 
 386:.\Generated_Source\PSoC5/cyfitter_cfg.c **** 		/* Enable digital routing */
 387:.\Generated_Source\PSoC5/cyfitter_cfg.c **** 		CY_SET_XTND_REG8((void CYFAR *)CYREG_BCTL0_BANK_CTL, CY_GET_XTND_REG8((void CYFAR *)CYREG_BCTL0_B
 490              		.loc 1 387 0
 491 0058 1E4A     		ldr	r2, .L33+24
 492 005a 1378     		ldrb	r3, [r2]	@ zero_extendqisi2
 493 005c 43F00203 		orr	r3, r3, #2
 494 0060 1370     		strb	r3, [r2]
 388:.\Generated_Source\PSoC5/cyfitter_cfg.c **** 		CY_SET_XTND_REG8((void CYFAR *)CYREG_BCTL1_BANK_CTL, CY_GET_XTND_REG8((void CYFAR *)CYREG_BCTL1_B
 495              		.loc 1 388 0
 496 0062 1032     		adds	r2, r2, #16
 497 0064 1378     		ldrb	r3, [r2]	@ zero_extendqisi2
 498 0066 43F00203 		orr	r3, r3, #2
 499 006a 1370     		strb	r3, [r2]
 389:.\Generated_Source\PSoC5/cyfitter_cfg.c **** 
 390:.\Generated_Source\PSoC5/cyfitter_cfg.c **** 		/* Enable UDB array */
 391:.\Generated_Source\PSoC5/cyfitter_cfg.c **** 		CY_SET_XTND_REG8((void CYFAR *)CYREG_PM_ACT_CFG0, CY_GET_XTND_REG8((void CYFAR *)CYREG_PM_ACT_CFG
 500              		.loc 1 391 0
 501 006c 1A4C     		ldr	r4, .L33+28
 502              	.LVL40:
 503 006e 2378     		ldrb	r3, [r4]	@ zero_extendqisi2
 504 0070 43F04003 		orr	r3, r3, #64
 505 0074 2370     		strb	r3, [r4]
 392:.\Generated_Source\PSoC5/cyfitter_cfg.c **** 		CY_SET_XTND_REG8((void CYFAR *)CYREG_PM_AVAIL_CR2, CY_GET_XTND_REG8((void CYFAR *)CYREG_PM_AVAIL_
 506              		.loc 1 392 0
 507 0076 A2F58632 		sub	r2, r2, #68608
 508 007a 513A     		subs	r2, r2, #81
 509 007c 1378     		ldrb	r3, [r2]	@ zero_extendqisi2
 510 007e 43F01003 		orr	r3, r3, #16
 511 0082 1370     		strb	r3, [r2]
 512              	.LBE3:
 393:.\Generated_Source\PSoC5/cyfitter_cfg.c **** 	}
 394:.\Generated_Source\PSoC5/cyfitter_cfg.c **** 
 395:.\Generated_Source\PSoC5/cyfitter_cfg.c **** 
 396:.\Generated_Source\PSoC5/cyfitter_cfg.c **** 	/* Perform second pass device configuration. These items must be configured in specific order afte
 397:.\Generated_Source\PSoC5/cyfitter_cfg.c **** 	CYCONFIGCPY((void CYFAR *)(CYREG_PRT0_DM0), (const void CYFAR *)(BS_IOPINS0_0_VAL), 8u);
 513              		.loc 1 397 0
 514 0084 1548     		ldr	r0, .L33+32
 515 0086 1649     		ldr	r1, .L33+36
 516 0088 0822     		movs	r2, #8
 517 008a FFF7FEFF 		bl	CYCONFIGCPY
 518              	.LVL41:
 398:.\Generated_Source\PSoC5/cyfitter_cfg.c **** 	CYCONFIGCPY((void CYFAR *)(CYREG_PRT12_DM0), (const void CYFAR *)(BS_IOPINS0_7_VAL), 8u);
 519              		.loc 1 398 0
 520 008e 1548     		ldr	r0, .L33+40
 521 0090 1549     		ldr	r1, .L33+44
 522 0092 0822     		movs	r2, #8
 523 0094 FFF7FEFF 		bl	CYCONFIGCPY
 524              	.LVL42:
 399:.\Generated_Source\PSoC5/cyfitter_cfg.c **** 	CYCONFIGCPY((void CYFAR *)(CYREG_PRT2_DM0), (const void CYFAR *)(BS_IOPINS0_2_VAL), 8u);
 525              		.loc 1 399 0
 526 0098 1448     		ldr	r0, .L33+48
 527 009a 1549     		ldr	r1, .L33+52
 528 009c 0822     		movs	r2, #8
 529 009e FFF7FEFF 		bl	CYCONFIGCPY
 530              	.LVL43:
ARM GAS  C:\Users\koseki\AppData\Local\Temp\cc9cuxFl.s 			page 18


 400:.\Generated_Source\PSoC5/cyfitter_cfg.c **** 	/* Switch Boost to the precision bandgap reference from its internal reference */
 401:.\Generated_Source\PSoC5/cyfitter_cfg.c **** 	CY_SET_REG8((void CYXDATA *)CYREG_BOOST_CR2, (CY_GET_REG8((void CYXDATA *)CYREG_BOOST_CR2) | 0x08u
 531              		.loc 1 401 0
 532 00a2 144A     		ldr	r2, .L33+56
 533 00a4 1378     		ldrb	r3, [r2]	@ zero_extendqisi2
 534 00a6 43F00803 		orr	r3, r3, #8
 535 00aa 1370     		strb	r3, [r2]
 402:.\Generated_Source\PSoC5/cyfitter_cfg.c **** 
 403:.\Generated_Source\PSoC5/cyfitter_cfg.c **** 	/* Perform basic analog initialization to defaults */
 404:.\Generated_Source\PSoC5/cyfitter_cfg.c **** 	AnalogSetDefault();
 536              		.loc 1 404 0
 537 00ac FFF7FEFF 		bl	AnalogSetDefault
 538              	.LVL44:
 405:.\Generated_Source\PSoC5/cyfitter_cfg.c **** 
 406:.\Generated_Source\PSoC5/cyfitter_cfg.c **** 	/* Configure alternate active mode */
 407:.\Generated_Source\PSoC5/cyfitter_cfg.c **** 	CYCONFIGCPY((void CYFAR *)CYDEV_PM_STBY_BASE, (const void CYFAR *)CYDEV_PM_ACT_BASE, 14u);
 539              		.loc 1 407 0
 540 00b0 1148     		ldr	r0, .L33+60
 541 00b2 2146     		mov	r1, r4
 542 00b4 0E22     		movs	r2, #14
 543 00b6 FFF7FEFF 		bl	CYCONFIGCPY
 544              	.LVL45:
 545 00ba 10BD     		pop	{r4, pc}
 546              	.L34:
 547              		.align	2
 548              	.L33:
 549 00bc 00480040 		.word	1073760256
 550 00c0 E8460040 		.word	1073759976
 551 00c4 00000000 		.word	.LANCHOR0
 552 00c8 70000048 		.word	1207959664
 553 00cc 00760040 		.word	1073772032
 554 00d0 08760040 		.word	1073772040
 555 00d4 03500140 		.word	1073827843
 556 00d8 A0430040 		.word	1073759136
 557 00dc 02510040 		.word	1073762562
 558 00e0 A0020048 		.word	1207960224
 559 00e4 C2510040 		.word	1073762754
 560 00e8 A8020048 		.word	1207960232
 561 00ec 22510040 		.word	1073762594
 562 00f0 B0020048 		.word	1207960240
 563 00f4 22430040 		.word	1073759010
 564 00f8 B0430040 		.word	1073759152
 565              		.cfi_endproc
 566              	.LFE8:
 567              		.size	cyfitter_cfg, .-cyfitter_cfg
 568              		.section	.rodata
 569              		.align	2
 570              		.set	.LANCHOR0,. + 0
 571              		.type	cfg_memset_list.4880, %object
 572              		.size	cfg_memset_list.4880, 60
 573              	cfg_memset_list.4880:
 574 0000 C8490040 		.word	1073760712
 575 0004 1900     		.short	25
 576 0006 004F0040 		.4byte	1073762048
 577 000a 0C00     		.short	12
 578 000c 10510040 		.word	1073762576
 579 0010 1000     		.short	16
ARM GAS  C:\Users\koseki\AppData\Local\Temp\cc9cuxFl.s 			page 19


 580 0012 30510040 		.4byte	1073762608
 581 0016 4000     		.short	64
 582 0018 F0510040 		.word	1073762800
 583 001c 1000     		.short	16
 584 001e 00000140 		.4byte	1073807360
 585 0022 0010     		.short	4096
 586 0024 00140140 		.word	1073812480
 587 0028 0008     		.short	2048
 588 002a 00400140 		.4byte	1073823744
 589 002e 000A     		.short	2560
 590 0030 004C0140 		.word	1073826816
 591 0034 0002     		.short	512
 592 0036 00500140 		.4byte	1073827840
 593 003a 2000     		.short	32
 594              		.text
 595              	.Letext0:
 596              		.file 2 "c:\\program files (x86)\\cypress\\psoc creator\\3.3\\psoc creator\\import\\gnu\\arm\\4.9.
 597              		.file 3 ".\\Generated_Source\\PSoC5\\cytypes.h"
 598              		.file 4 ".\\Generated_Source\\PSoC5\\CyLib.h"