ARM GAS  C:\Users\koseki\AppData\Local\Temp\ccAZfmk4.s 			page 1


   1              		.syntax unified
   2              		.cpu cortex-m3
   3              		.fpu softvfp
   4              		.eabi_attribute 20, 1
   5              		.eabi_attribute 21, 1
   6              		.eabi_attribute 23, 3
   7              		.eabi_attribute 24, 1
   8              		.eabi_attribute 25, 1
   9              		.eabi_attribute 26, 1
  10              		.eabi_attribute 30, 1
  11              		.eabi_attribute 34, 1
  12              		.eabi_attribute 18, 4
  13              		.thumb
  14              		.file	"I2C_CLCD.c"
  15              		.text
  16              	.Ltext0:
  17              		.cfi_sections	.debug_frame
  18              		.section	.text.I2C_CLCD_WrCntrlNib,"ax",%progbits
  19              		.align	2
  20              		.thumb
  21              		.thumb_func
  22              		.type	I2C_CLCD_WrCntrlNib, %function
  23              	I2C_CLCD_WrCntrlNib:
  24              	.LFB11:
  25              		.file 1 "..\\API\\I2C_CLCD.c"
   1:..\API/I2C_CLCD.c **** /*******************************************************************************
   2:..\API/I2C_CLCD.c **** * File Name: I2C_CLCD.c
   3:..\API/I2C_CLCD.c **** * Version 1.0
   4:..\API/I2C_CLCD.c **** *
   5:..\API/I2C_CLCD.c **** * Description:
   6:..\API/I2C_CLCD.c **** *  This file provides source code for the I2C CLCD component's API.
   7:..\API/I2C_CLCD.c **** *  I2C_CLCD.c is midified LCD.c to use PCF8574 based I2C module for CLCD.
   8:..\API/I2C_CLCD.c **** *  In this file, the original 'LCD_' is changed to 'I2C_CLCD_'
   9:..\API/I2C_CLCD.c **** *
  10:..\API/I2C_CLCD.c **** * Note:
  11:..\API/I2C_CLCD.c **** *
  12:..\API/I2C_CLCD.c **** ********************************************************************************
  13:..\API/I2C_CLCD.c **** * Copyright 2008-2014, Cypress Semiconductor Corporation.  All rights reserved.
  14:..\API/I2C_CLCD.c **** * You may use this file only in accordance with the license, terms, conditions,
  15:..\API/I2C_CLCD.c **** * disclaimers, and limitations in the end user license agreement accompanying
  16:..\API/I2C_CLCD.c **** * the software package with which this file was provided.
  17:..\API/I2C_CLCD.c **** *******************************************************************************/
  18:..\API/I2C_CLCD.c **** 
  19:..\API/I2C_CLCD.c **** /*******************************************************************************
  20:..\API/I2C_CLCD.c **** * Copyright 2016, JA7RHK.   All rights reserved.
  21:..\API/I2C_CLCD.c **** *******************************************************************************/
  22:..\API/I2C_CLCD.c **** 
  23:..\API/I2C_CLCD.c **** #include "CyLib.h"
  24:..\API/I2C_CLCD.c **** #include "I2C_CLCD.h"
  25:..\API/I2C_CLCD.c **** 
  26:..\API/I2C_CLCD.c **** 
  27:..\API/I2C_CLCD.c **** static void I2C_CLCD_WrDatNib(uint8 nibble) ;
  28:..\API/I2C_CLCD.c **** static void I2C_CLCD_WrCntrlNib(uint8 nibble) ;
  29:..\API/I2C_CLCD.c **** 
  30:..\API/I2C_CLCD.c **** /* Stores state of component. Indicates whether component is or not
  31:..\API/I2C_CLCD.c **** * in the enable state.
  32:..\API/I2C_CLCD.c **** */
ARM GAS  C:\Users\koseki\AppData\Local\Temp\ccAZfmk4.s 			page 2


  33:..\API/I2C_CLCD.c **** uint8 I2C_CLCD_enableState = 0u;
  34:..\API/I2C_CLCD.c **** 
  35:..\API/I2C_CLCD.c **** uint8 I2C_CLCD_initVar = 0u;
  36:..\API/I2C_CLCD.c **** 
  37:..\API/I2C_CLCD.c **** /* Need to have I2C_CLCD_buffIndex of different size to avoid MISRA
  38:..\API/I2C_CLCD.c **** * warning when SCB based I2C Master is used. 
  39:..\API/I2C_CLCD.c **** */
  40:..\API/I2C_CLCD.c **** 
  41:..\API/I2C_CLCD.c **** /* Variable stores the I2C address */
  42:..\API/I2C_CLCD.c **** /* 7-bit slave address. */
  43:..\API/I2C_CLCD.c **** uint8 slaveAddress = I2C_LCD_DEFAULT_I2C_ADDRESS;
  44:..\API/I2C_CLCD.c **** uint8 I2C_CLCD_BackLight = I2C_CLCD_BL;
  45:..\API/I2C_CLCD.c **** 
  46:..\API/I2C_CLCD.c **** 
  47:..\API/I2C_CLCD.c **** /*******************************************************************************
  48:..\API/I2C_CLCD.c **** * Function Name: I2C_CLCD_Init
  49:..\API/I2C_CLCD.c **** ********************************************************************************
  50:..\API/I2C_CLCD.c **** *
  51:..\API/I2C_CLCD.c **** * Summary:
  52:..\API/I2C_CLCD.c **** *  Perform initialization required for the components normal work.
  53:..\API/I2C_CLCD.c **** *  This function initializes the LCD hardware module as follows:
  54:..\API/I2C_CLCD.c **** *        Enables a 4-bit interface
  55:..\API/I2C_CLCD.c **** *        Clears the display
  56:..\API/I2C_CLCD.c **** *        Enables the auto cursor increment
  57:..\API/I2C_CLCD.c **** *        Resets the cursor to start position
  58:..\API/I2C_CLCD.c **** *  Also, it loads a custom character set to the LCD if it was defined in the customizer.
  59:..\API/I2C_CLCD.c **** *
  60:..\API/I2C_CLCD.c **** * Parameters:
  61:..\API/I2C_CLCD.c **** *  None.
  62:..\API/I2C_CLCD.c **** *
  63:..\API/I2C_CLCD.c **** * Return:
  64:..\API/I2C_CLCD.c **** *  None.
  65:..\API/I2C_CLCD.c **** *
  66:..\API/I2C_CLCD.c **** * Reentrant:
  67:..\API/I2C_CLCD.c **** *  No.
  68:..\API/I2C_CLCD.c **** *
  69:..\API/I2C_CLCD.c **** *******************************************************************************/
  70:..\API/I2C_CLCD.c **** void I2C_CLCD_Init(void) 
  71:..\API/I2C_CLCD.c **** {
  72:..\API/I2C_CLCD.c ****     /* INIT CODE */
  73:..\API/I2C_CLCD.c ****     CyDelay(40u);                                                        /* Delay 40 ms */
  74:..\API/I2C_CLCD.c ****     I2C_CLCD_WrCntrlNib(I2C_CLCD_DISPLAY_8_BIT_INIT);    /* Selects 8-bit mode */
  75:..\API/I2C_CLCD.c ****     CyDelay(5u);                                                         /* Delay 5 ms */
  76:..\API/I2C_CLCD.c ****     I2C_CLCD_WrCntrlNib(I2C_CLCD_DISPLAY_8_BIT_INIT);    /* Selects 8-bit mode */
  77:..\API/I2C_CLCD.c ****     CyDelay(15u);                                                        /* Delay 15 ms */
  78:..\API/I2C_CLCD.c ****     I2C_CLCD_WrCntrlNib(I2C_CLCD_DISPLAY_8_BIT_INIT);    /* Selects 8-bit mode */
  79:..\API/I2C_CLCD.c ****     CyDelay(1u);                                                         /* Delay 1 ms */
  80:..\API/I2C_CLCD.c ****     I2C_CLCD_WrCntrlNib(I2C_CLCD_DISPLAY_4_BIT_INIT);    /* Selects 4-bit mode */
  81:..\API/I2C_CLCD.c ****     CyDelay(5u);                                                         /* Delay 5 ms */
  82:..\API/I2C_CLCD.c **** 
  83:..\API/I2C_CLCD.c ****     I2C_CLCD_WriteControl(I2C_CLCD_CURSOR_AUTO_INCR_ON);    /* Incr Cursor After Writes */
  84:..\API/I2C_CLCD.c ****     I2C_CLCD_WriteControl(I2C_CLCD_DISPLAY_CURSOR_ON);      /* Turn Display, Cursor ON */
  85:..\API/I2C_CLCD.c ****     I2C_CLCD_WriteControl(I2C_CLCD_DISPLAY_2_LINES_5x10);   /* 2 Lines by 5x10 Characters */
  86:..\API/I2C_CLCD.c ****     I2C_CLCD_WriteControl(I2C_CLCD_DISPLAY_CURSOR_OFF);     /* Turn Display, Cursor OFF */
  87:..\API/I2C_CLCD.c ****     I2C_CLCD_WriteControl(I2C_CLCD_CLEAR_DISPLAY);          /* Clear LCD Screen */
  88:..\API/I2C_CLCD.c ****     I2C_CLCD_WriteControl(I2C_CLCD_DISPLAY_ON_CURSOR_OFF);  /* Turn Display ON, Cursor OFF */
  89:..\API/I2C_CLCD.c ****     I2C_CLCD_WriteControl(I2C_CLCD_RESET_CURSOR_POSITION);  /* Set Cursor to 0,0 */
ARM GAS  C:\Users\koseki\AppData\Local\Temp\ccAZfmk4.s 			page 3


  90:..\API/I2C_CLCD.c ****     CyDelay(5u);
  91:..\API/I2C_CLCD.c **** }
  92:..\API/I2C_CLCD.c **** 
  93:..\API/I2C_CLCD.c **** 
  94:..\API/I2C_CLCD.c **** /*******************************************************************************
  95:..\API/I2C_CLCD.c **** * Function Name: I2C_CLCD_Enable
  96:..\API/I2C_CLCD.c **** ********************************************************************************
  97:..\API/I2C_CLCD.c **** *
  98:..\API/I2C_CLCD.c **** * Summary:
  99:..\API/I2C_CLCD.c **** *  Turns on the display.
 100:..\API/I2C_CLCD.c **** *
 101:..\API/I2C_CLCD.c **** * Parameters:
 102:..\API/I2C_CLCD.c **** *  None.
 103:..\API/I2C_CLCD.c **** *
 104:..\API/I2C_CLCD.c **** * Return:
 105:..\API/I2C_CLCD.c **** *  None.
 106:..\API/I2C_CLCD.c **** *
 107:..\API/I2C_CLCD.c **** * Reentrant:
 108:..\API/I2C_CLCD.c **** *  No.
 109:..\API/I2C_CLCD.c **** *
 110:..\API/I2C_CLCD.c **** * Theory:
 111:..\API/I2C_CLCD.c **** *  This function has no effect when it is called the first time as
 112:..\API/I2C_CLCD.c **** *  I2C_CLCD_Init() turns on the LCD.
 113:..\API/I2C_CLCD.c **** *
 114:..\API/I2C_CLCD.c **** *******************************************************************************/
 115:..\API/I2C_CLCD.c **** void I2C_CLCD_Enable(void) 
 116:..\API/I2C_CLCD.c **** {
 117:..\API/I2C_CLCD.c ****     I2C_CLCD_DisplayOn();
 118:..\API/I2C_CLCD.c ****     I2C_CLCD_enableState = 1u;
 119:..\API/I2C_CLCD.c **** }
 120:..\API/I2C_CLCD.c **** 
 121:..\API/I2C_CLCD.c **** 
 122:..\API/I2C_CLCD.c **** /*******************************************************************************
 123:..\API/I2C_CLCD.c **** * Function Name: I2C_CLCD_Start
 124:..\API/I2C_CLCD.c **** ********************************************************************************
 125:..\API/I2C_CLCD.c **** *
 126:..\API/I2C_CLCD.c **** * Summary:
 127:..\API/I2C_CLCD.c **** *  Perform initialization required for the components normal work.
 128:..\API/I2C_CLCD.c **** *  This function initializes the LCD hardware module as follows:
 129:..\API/I2C_CLCD.c **** *        Enables 4-bit interface
 130:..\API/I2C_CLCD.c **** *        Clears the display
 131:..\API/I2C_CLCD.c **** *        Enables auto cursor increment
 132:..\API/I2C_CLCD.c **** *        Resets the cursor to start position
 133:..\API/I2C_CLCD.c **** *  Also, it loads a custom character set to the LCD if it was defined in the customizer.
 134:..\API/I2C_CLCD.c **** *  If it was not the first call in this project, then it just turns on the
 135:..\API/I2C_CLCD.c **** *  display
 136:..\API/I2C_CLCD.c **** *
 137:..\API/I2C_CLCD.c **** *
 138:..\API/I2C_CLCD.c **** * Parameters:
 139:..\API/I2C_CLCD.c **** *  I2C_CLCD_initVar - global variable.
 140:..\API/I2C_CLCD.c **** *
 141:..\API/I2C_CLCD.c **** * Return:
 142:..\API/I2C_CLCD.c **** *  I2C_CLCD_initVar - global variable.
 143:..\API/I2C_CLCD.c **** *
 144:..\API/I2C_CLCD.c **** * Reentrant:
 145:..\API/I2C_CLCD.c **** *  No.
 146:..\API/I2C_CLCD.c **** *
ARM GAS  C:\Users\koseki\AppData\Local\Temp\ccAZfmk4.s 			page 4


 147:..\API/I2C_CLCD.c **** *******************************************************************************/
 148:..\API/I2C_CLCD.c **** void I2C_CLCD_Start(void) 
 149:..\API/I2C_CLCD.c **** {
 150:..\API/I2C_CLCD.c ****     /* If not initialized, perform initialization */
 151:..\API/I2C_CLCD.c ****     if(I2C_CLCD_initVar == 0u)
 152:..\API/I2C_CLCD.c ****     {
 153:..\API/I2C_CLCD.c ****         I2C_CLCD_Init();
 154:..\API/I2C_CLCD.c ****         I2C_CLCD_initVar = 1u;
 155:..\API/I2C_CLCD.c ****     }
 156:..\API/I2C_CLCD.c **** 
 157:..\API/I2C_CLCD.c ****     /* Turn on the LCD */
 158:..\API/I2C_CLCD.c ****     I2C_CLCD_Enable();
 159:..\API/I2C_CLCD.c **** }
 160:..\API/I2C_CLCD.c **** 
 161:..\API/I2C_CLCD.c **** 
 162:..\API/I2C_CLCD.c **** /*******************************************************************************
 163:..\API/I2C_CLCD.c **** * Function Name: I2C_CLCD_Stop
 164:..\API/I2C_CLCD.c **** ********************************************************************************
 165:..\API/I2C_CLCD.c **** *
 166:..\API/I2C_CLCD.c **** * Summary:
 167:..\API/I2C_CLCD.c **** *  Turns off the display of the LCD screen.
 168:..\API/I2C_CLCD.c **** *
 169:..\API/I2C_CLCD.c **** * Parameters:
 170:..\API/I2C_CLCD.c **** *  None.
 171:..\API/I2C_CLCD.c **** *
 172:..\API/I2C_CLCD.c **** * Return:
 173:..\API/I2C_CLCD.c **** *  None.
 174:..\API/I2C_CLCD.c **** *
 175:..\API/I2C_CLCD.c **** * Reentrant:
 176:..\API/I2C_CLCD.c **** *  No.
 177:..\API/I2C_CLCD.c **** *
 178:..\API/I2C_CLCD.c **** *******************************************************************************/
 179:..\API/I2C_CLCD.c **** void I2C_CLCD_Stop(void) 
 180:..\API/I2C_CLCD.c **** {
 181:..\API/I2C_CLCD.c ****     /* Calls LCD Off Macro */
 182:..\API/I2C_CLCD.c ****     I2C_CLCD_DisplayOff();
 183:..\API/I2C_CLCD.c ****     I2C_CLCD_enableState = 0u;
 184:..\API/I2C_CLCD.c **** }
 185:..\API/I2C_CLCD.c **** 
 186:..\API/I2C_CLCD.c **** 
 187:..\API/I2C_CLCD.c **** /*******************************************************************************
 188:..\API/I2C_CLCD.c **** *  Function Name: I2C_CLCD_Position
 189:..\API/I2C_CLCD.c **** ********************************************************************************
 190:..\API/I2C_CLCD.c **** *
 191:..\API/I2C_CLCD.c **** * Summary:
 192:..\API/I2C_CLCD.c **** *  Moves the active cursor location to a point specified by the input arguments
 193:..\API/I2C_CLCD.c **** *
 194:..\API/I2C_CLCD.c **** * Parameters:
 195:..\API/I2C_CLCD.c **** *  row:    Specific row of LCD module to be written
 196:..\API/I2C_CLCD.c **** *  column: Column of LCD module to be written
 197:..\API/I2C_CLCD.c **** *
 198:..\API/I2C_CLCD.c **** * Return:
 199:..\API/I2C_CLCD.c **** *  None.
 200:..\API/I2C_CLCD.c **** *
 201:..\API/I2C_CLCD.c **** * Note:
 202:..\API/I2C_CLCD.c **** *  This only applies for LCD displays that use the 2X40 address mode.
 203:..\API/I2C_CLCD.c **** *  In this case Row 2 starts with 0x28 offset from Row 1.
ARM GAS  C:\Users\koseki\AppData\Local\Temp\ccAZfmk4.s 			page 5


 204:..\API/I2C_CLCD.c **** *  When there are more than 2 rows, each row must be fewer than 20 characters.
 205:..\API/I2C_CLCD.c **** *
 206:..\API/I2C_CLCD.c **** *******************************************************************************/
 207:..\API/I2C_CLCD.c **** void I2C_CLCD_Position(uint8 row, uint8 column) 
 208:..\API/I2C_CLCD.c **** {
 209:..\API/I2C_CLCD.c ****     switch (row)
 210:..\API/I2C_CLCD.c ****     {
 211:..\API/I2C_CLCD.c ****         case (uint8)0:
 212:..\API/I2C_CLCD.c ****             I2C_CLCD_WriteControl(I2C_CLCD_ROW_0_START + column);
 213:..\API/I2C_CLCD.c ****             break;
 214:..\API/I2C_CLCD.c ****         case (uint8) 1:
 215:..\API/I2C_CLCD.c ****             I2C_CLCD_WriteControl(I2C_CLCD_ROW_1_START + column);
 216:..\API/I2C_CLCD.c ****             break;
 217:..\API/I2C_CLCD.c ****         case (uint8) 2:
 218:..\API/I2C_CLCD.c ****             I2C_CLCD_WriteControl(I2C_CLCD_ROW_2_START + column);
 219:..\API/I2C_CLCD.c ****             break;
 220:..\API/I2C_CLCD.c ****         case (uint8) 3:
 221:..\API/I2C_CLCD.c ****             I2C_CLCD_WriteControl(I2C_CLCD_ROW_3_START + column);
 222:..\API/I2C_CLCD.c ****             break;
 223:..\API/I2C_CLCD.c ****         default:
 224:..\API/I2C_CLCD.c ****             /* if default case is hit, invalid row argument was passed.*/
 225:..\API/I2C_CLCD.c ****             break;
 226:..\API/I2C_CLCD.c ****     }
 227:..\API/I2C_CLCD.c **** }
 228:..\API/I2C_CLCD.c **** 
 229:..\API/I2C_CLCD.c **** 
 230:..\API/I2C_CLCD.c **** /*******************************************************************************
 231:..\API/I2C_CLCD.c **** * Function Name: I2C_CLCD_PrintString
 232:..\API/I2C_CLCD.c **** ********************************************************************************
 233:..\API/I2C_CLCD.c **** *
 234:..\API/I2C_CLCD.c **** * Summary:
 235:..\API/I2C_CLCD.c **** *  Writes a zero terminated string to the LCD.
 236:..\API/I2C_CLCD.c **** *
 237:..\API/I2C_CLCD.c **** * Parameters:
 238:..\API/I2C_CLCD.c **** *  string: Pointer to head of char8 array to be written to the LCD module
 239:..\API/I2C_CLCD.c **** *
 240:..\API/I2C_CLCD.c **** * Return:
 241:..\API/I2C_CLCD.c **** *  None.
 242:..\API/I2C_CLCD.c **** *
 243:..\API/I2C_CLCD.c **** *******************************************************************************/
 244:..\API/I2C_CLCD.c **** void I2C_CLCD_PrintString(char8 const string[]) 
 245:..\API/I2C_CLCD.c **** {
 246:..\API/I2C_CLCD.c ****     uint8 indexU8 = 1u;
 247:..\API/I2C_CLCD.c ****     char8 current = *string;
 248:..\API/I2C_CLCD.c **** 
 249:..\API/I2C_CLCD.c ****     /* Until null is reached, print next character */
 250:..\API/I2C_CLCD.c ****     while((char8) '\0' != current)
 251:..\API/I2C_CLCD.c ****     {
 252:..\API/I2C_CLCD.c ****         I2C_CLCD_WriteData((uint8)current);
 253:..\API/I2C_CLCD.c ****         current = string[indexU8];
 254:..\API/I2C_CLCD.c ****         indexU8++;
 255:..\API/I2C_CLCD.c ****     }
 256:..\API/I2C_CLCD.c **** }
 257:..\API/I2C_CLCD.c **** 
 258:..\API/I2C_CLCD.c **** 
 259:..\API/I2C_CLCD.c **** /*******************************************************************************
 260:..\API/I2C_CLCD.c **** *  Function Name: I2C_CLCD_PutChar
ARM GAS  C:\Users\koseki\AppData\Local\Temp\ccAZfmk4.s 			page 6


 261:..\API/I2C_CLCD.c **** ********************************************************************************
 262:..\API/I2C_CLCD.c **** *
 263:..\API/I2C_CLCD.c **** * Summary:
 264:..\API/I2C_CLCD.c **** *  Writes a single character to the current cursor position of the LCD module.
 265:..\API/I2C_CLCD.c **** *  Custom character names (_CUSTOM_0 through
 266:..\API/I2C_CLCD.c **** *  _CUSTOM_7) are acceptable as inputs.
 267:..\API/I2C_CLCD.c **** *
 268:..\API/I2C_CLCD.c **** * Parameters:
 269:..\API/I2C_CLCD.c **** *  character: Character to be written to LCD
 270:..\API/I2C_CLCD.c **** *
 271:..\API/I2C_CLCD.c **** * Return:
 272:..\API/I2C_CLCD.c **** *  None.
 273:..\API/I2C_CLCD.c **** *
 274:..\API/I2C_CLCD.c **** *******************************************************************************/
 275:..\API/I2C_CLCD.c **** void I2C_CLCD_PutChar(char8 character) 
 276:..\API/I2C_CLCD.c **** {
 277:..\API/I2C_CLCD.c ****     I2C_CLCD_WriteData((uint8)character);
 278:..\API/I2C_CLCD.c **** }
 279:..\API/I2C_CLCD.c **** 
 280:..\API/I2C_CLCD.c **** 
 281:..\API/I2C_CLCD.c **** /*******************************************************************************
 282:..\API/I2C_CLCD.c **** *  Function Name: I2C_CLCD_WriteData
 283:..\API/I2C_CLCD.c **** ********************************************************************************
 284:..\API/I2C_CLCD.c **** *
 285:..\API/I2C_CLCD.c **** * Summary:
 286:..\API/I2C_CLCD.c **** *  Writes a data byte to the LCD module's Data Display RAM.
 287:..\API/I2C_CLCD.c **** *
 288:..\API/I2C_CLCD.c **** * Parameters:
 289:..\API/I2C_CLCD.c **** *  dByte: Byte to be written to the LCD module
 290:..\API/I2C_CLCD.c **** *
 291:..\API/I2C_CLCD.c **** * Return:
 292:..\API/I2C_CLCD.c **** *  None.
 293:..\API/I2C_CLCD.c **** *
 294:..\API/I2C_CLCD.c **** *******************************************************************************/
 295:..\API/I2C_CLCD.c **** void I2C_CLCD_WriteData(uint8 dByte) 
 296:..\API/I2C_CLCD.c **** {
 297:..\API/I2C_CLCD.c ****     uint8 nibble;
 298:..\API/I2C_CLCD.c **** 
 299:..\API/I2C_CLCD.c ****     I2C_CLCD_IsReady();
 300:..\API/I2C_CLCD.c ****     nibble = dByte >> I2C_CLCD_NIBBLE_SHIFT;
 301:..\API/I2C_CLCD.c **** 
 302:..\API/I2C_CLCD.c ****     /* Write high nibble */
 303:..\API/I2C_CLCD.c ****     I2C_CLCD_WrDatNib(nibble);
 304:..\API/I2C_CLCD.c **** 
 305:..\API/I2C_CLCD.c ****     nibble = dByte & I2C_CLCD_NIBBLE_MASK;
 306:..\API/I2C_CLCD.c ****     /* Write low nibble */
 307:..\API/I2C_CLCD.c ****     I2C_CLCD_WrDatNib(nibble);
 308:..\API/I2C_CLCD.c **** }
 309:..\API/I2C_CLCD.c **** 
 310:..\API/I2C_CLCD.c **** 
 311:..\API/I2C_CLCD.c **** /*******************************************************************************
 312:..\API/I2C_CLCD.c **** *  Function Name: I2C_CLCD_WriteControl
 313:..\API/I2C_CLCD.c **** ********************************************************************************
 314:..\API/I2C_CLCD.c **** *
 315:..\API/I2C_CLCD.c **** * Summary:
 316:..\API/I2C_CLCD.c **** *  Writes a command byte to the LCD module.
 317:..\API/I2C_CLCD.c **** *
ARM GAS  C:\Users\koseki\AppData\Local\Temp\ccAZfmk4.s 			page 7


 318:..\API/I2C_CLCD.c **** * Parameters:
 319:..\API/I2C_CLCD.c **** *  cByte:  The byte to be written to theLCD module
 320:..\API/I2C_CLCD.c **** * 
 321:..\API/I2C_CLCD.c **** * Return:
 322:..\API/I2C_CLCD.c **** *  None.
 323:..\API/I2C_CLCD.c **** *
 324:..\API/I2C_CLCD.c **** *******************************************************************************/
 325:..\API/I2C_CLCD.c **** void I2C_CLCD_WriteControl(uint8 cByte) 
 326:..\API/I2C_CLCD.c **** {
 327:..\API/I2C_CLCD.c ****     uint8 nibble;
 328:..\API/I2C_CLCD.c **** 
 329:..\API/I2C_CLCD.c ****     I2C_CLCD_IsReady();
 330:..\API/I2C_CLCD.c **** 
 331:..\API/I2C_CLCD.c ****     nibble = cByte >> I2C_CLCD_NIBBLE_SHIFT;
 332:..\API/I2C_CLCD.c ****     
 333:..\API/I2C_CLCD.c ****     /* WrCntrlNib(High Nibble) */
 334:..\API/I2C_CLCD.c ****     I2C_CLCD_WrCntrlNib(nibble);
 335:..\API/I2C_CLCD.c ****     nibble = cByte & I2C_CLCD_NIBBLE_MASK;
 336:..\API/I2C_CLCD.c **** 
 337:..\API/I2C_CLCD.c ****     /* WrCntrlNib(Low Nibble) */
 338:..\API/I2C_CLCD.c ****     I2C_CLCD_WrCntrlNib(nibble);
 339:..\API/I2C_CLCD.c **** }
 340:..\API/I2C_CLCD.c **** 
 341:..\API/I2C_CLCD.c **** 
 342:..\API/I2C_CLCD.c **** /*******************************************************************************
 343:..\API/I2C_CLCD.c **** * Function Name: I2C_CLCD_IsReady
 344:..\API/I2C_CLCD.c **** ********************************************************************************
 345:..\API/I2C_CLCD.c **** *
 346:..\API/I2C_CLCD.c **** * Summary:
 347:..\API/I2C_CLCD.c **** *  Polls the LCD until the ready bit is set.
 348:..\API/I2C_CLCD.c **** *
 349:..\API/I2C_CLCD.c **** * Parameters:
 350:..\API/I2C_CLCD.c **** *  None.
 351:..\API/I2C_CLCD.c **** *
 352:..\API/I2C_CLCD.c **** * Return:
 353:..\API/I2C_CLCD.c **** *  None.
 354:..\API/I2C_CLCD.c **** *
 355:..\API/I2C_CLCD.c **** *******************************************************************************/
 356:..\API/I2C_CLCD.c **** void I2C_CLCD_IsReady(void) 
 357:..\API/I2C_CLCD.c **** {
 358:..\API/I2C_CLCD.c ****     /*
 359:..\API/I2C_CLCD.c ****     *  No need to use the delay routines since the time taken to write takes
 360:..\API/I2C_CLCD.c ****     *  longer that what is needed both for toggling and enable pin an to execute
 361:..\API/I2C_CLCD.c ****     *  the command.
 362:..\API/I2C_CLCD.c ****     */
 363:..\API/I2C_CLCD.c ****     CyDelayUs(1u);
 364:..\API/I2C_CLCD.c **** }
 365:..\API/I2C_CLCD.c **** 
 366:..\API/I2C_CLCD.c **** 
 367:..\API/I2C_CLCD.c **** /*******************************************************************************
 368:..\API/I2C_CLCD.c **** *  Function Name: I2C_CLCD_WrDatNib
 369:..\API/I2C_CLCD.c **** ********************************************************************************
 370:..\API/I2C_CLCD.c **** *
 371:..\API/I2C_CLCD.c **** * Summary:
 372:..\API/I2C_CLCD.c **** *  Writes a data nibble to the LCD module.
 373:..\API/I2C_CLCD.c **** *
 374:..\API/I2C_CLCD.c **** * Parameters:
ARM GAS  C:\Users\koseki\AppData\Local\Temp\ccAZfmk4.s 			page 8


 375:..\API/I2C_CLCD.c **** *  nibble:  Byte containing nibble in least significant nibble to be written
 376:..\API/I2C_CLCD.c **** *           to LCD module.
 377:..\API/I2C_CLCD.c **** *
 378:..\API/I2C_CLCD.c **** * Return:
 379:..\API/I2C_CLCD.c **** *  None.
 380:..\API/I2C_CLCD.c **** *
 381:..\API/I2C_CLCD.c **** *******************************************************************************/
 382:..\API/I2C_CLCD.c **** static void I2C_CLCD_WrDatNib(uint8 nibble) 
 383:..\API/I2C_CLCD.c **** {
 384:..\API/I2C_CLCD.c **** 	uint8 data = I2C_CLCD_BackLight;
 385:..\API/I2C_CLCD.c **** 
 386:..\API/I2C_CLCD.c ****     I2C_CLCD_MasterSendStart(slaveAddress, I2C_WRITE);
 387:..\API/I2C_CLCD.c ****     CyDelayUs(1u);
 388:..\API/I2C_CLCD.c **** 
 389:..\API/I2C_CLCD.c ****     /* RS should be low to select data register */
 390:..\API/I2C_CLCD.c ****     data |= I2C_CLCD_RS;
 391:..\API/I2C_CLCD.c **** 	I2C_CLCD_MasterWriteByte(data);
 392:..\API/I2C_CLCD.c **** 
 393:..\API/I2C_CLCD.c ****     /* Reset RW for write operation */
 394:..\API/I2C_CLCD.c ****     data &= ((uint8)(~I2C_CLCD_RW));
 395:..\API/I2C_CLCD.c **** 	I2C_CLCD_MasterWriteByte(data);
 396:..\API/I2C_CLCD.c **** 
 397:..\API/I2C_CLCD.c ****     /* Guaranteed delay between Setting RS and RW and setting E bits */
 398:..\API/I2C_CLCD.c ****     CyDelayUs(0u);
 399:..\API/I2C_CLCD.c ****     
 400:..\API/I2C_CLCD.c ****     /* Clear data pins */
 401:..\API/I2C_CLCD.c ****     data &= ((uint8)(~I2C_CLCD_DATA_MASK));
 402:..\API/I2C_CLCD.c **** 	I2C_CLCD_MasterWriteByte(data);
 403:..\API/I2C_CLCD.c **** 
 404:..\API/I2C_CLCD.c ****     /* Write data, bring E high */
 405:..\API/I2C_CLCD.c ****     /* for FC-113 data position is 0xF0 */
 406:..\API/I2C_CLCD.c ****     data |= (I2C_CLCD_E | (nibble << I2C_CLCD_4BIT_DATA_SHIFT));
 407:..\API/I2C_CLCD.c ****  	I2C_CLCD_MasterWriteByte(data);
 408:..\API/I2C_CLCD.c **** 
 409:..\API/I2C_CLCD.c ****     /* Minimum of 230 ns delay */
 410:..\API/I2C_CLCD.c ****     CyDelayUs(1u);
 411:..\API/I2C_CLCD.c **** 
 412:..\API/I2C_CLCD.c ****     data &= ((uint8)(~I2C_CLCD_E));
 413:..\API/I2C_CLCD.c **** 	I2C_CLCD_MasterWriteByte(data);
 414:..\API/I2C_CLCD.c **** 
 415:..\API/I2C_CLCD.c ****     CyDelayUs(1u);
 416:..\API/I2C_CLCD.c ****     I2C_1_MasterSendStop();
 417:..\API/I2C_CLCD.c **** }
 418:..\API/I2C_CLCD.c **** 
 419:..\API/I2C_CLCD.c **** 
 420:..\API/I2C_CLCD.c **** /*******************************************************************************
 421:..\API/I2C_CLCD.c **** *  Function Name: I2C_CLCD_WrCntrlNib
 422:..\API/I2C_CLCD.c **** ********************************************************************************
 423:..\API/I2C_CLCD.c **** *
 424:..\API/I2C_CLCD.c **** * Summary:
 425:..\API/I2C_CLCD.c **** *  Writes a control nibble to the LCD module.
 426:..\API/I2C_CLCD.c **** *
 427:..\API/I2C_CLCD.c **** * Parameters:
 428:..\API/I2C_CLCD.c **** *  nibble: The byte containing a nibble in the four least significant bits.????
 429:..\API/I2C_CLCD.c **** *
 430:..\API/I2C_CLCD.c **** * Return:
 431:..\API/I2C_CLCD.c **** *  None.
ARM GAS  C:\Users\koseki\AppData\Local\Temp\ccAZfmk4.s 			page 9


 432:..\API/I2C_CLCD.c **** *
 433:..\API/I2C_CLCD.c **** *******************************************************************************/
 434:..\API/I2C_CLCD.c **** static void I2C_CLCD_WrCntrlNib(uint8 nibble) 
 435:..\API/I2C_CLCD.c **** {
  26              		.loc 1 435 0
  27              		.cfi_startproc
  28              		@ args = 0, pretend = 0, frame = 0
  29              		@ frame_needed = 0, uses_anonymous_args = 0
  30              	.LVL0:
  31 0000 70B5     		push	{r4, r5, r6, lr}
  32              		.cfi_def_cfa_offset 16
  33              		.cfi_offset 4, -16
  34              		.cfi_offset 5, -12
  35              		.cfi_offset 6, -8
  36              		.cfi_offset 14, -4
  37 0002 0646     		mov	r6, r0
 436:..\API/I2C_CLCD.c **** 	uint8 data = I2C_CLCD_BackLight;
  38              		.loc 1 436 0
  39 0004 134B     		ldr	r3, .L3
  40 0006 1D78     		ldrb	r5, [r3]	@ zero_extendqisi2
  41              	.LVL1:
 437:..\API/I2C_CLCD.c ****     
 438:..\API/I2C_CLCD.c ****     I2C_CLCD_MasterSendStart(slaveAddress, I2C_WRITE);
  42              		.loc 1 438 0
  43 0008 5878     		ldrb	r0, [r3, #1]	@ zero_extendqisi2
  44              	.LVL2:
  45 000a 0021     		movs	r1, #0
  46 000c FFF7FEFF 		bl	I2C_1_MasterSendStart
  47              	.LVL3:
 439:..\API/I2C_CLCD.c ****     CyDelayUs(1u);
  48              		.loc 1 439 0
  49 0010 0120     		movs	r0, #1
  50 0012 FFF7FEFF 		bl	CyDelayUs
  51              	.LVL4:
 440:..\API/I2C_CLCD.c **** 
 441:..\API/I2C_CLCD.c ****     /* RS and RW should be low to select instruction register and  write operation respectively */
 442:..\API/I2C_CLCD.c ****     data |= ((uint8)(~(I2C_CLCD_RS | I2C_CLCD_RW)));
 443:..\API/I2C_CLCD.c **** 	I2C_CLCD_MasterWriteByte(data);
  52              		.loc 1 443 0
  53 0016 45F0FC00 		orr	r0, r5, #252
  54 001a FFF7FEFF 		bl	I2C_1_MasterWriteByte
  55              	.LVL5:
 444:..\API/I2C_CLCD.c **** 
 445:..\API/I2C_CLCD.c ****     /* Two following lines of code will give 40ns delay */
 446:..\API/I2C_CLCD.c ****     /* Clear data pins */
 447:..\API/I2C_CLCD.c ****     data &= ((uint8)(~I2C_CLCD_DATA_MASK));
  56              		.loc 1 447 0
  57 001e 05F00F05 		and	r5, r5, #15
  58              	.LVL6:
  59 0022 45F00C04 		orr	r4, r5, #12
  60              	.LVL7:
 448:..\API/I2C_CLCD.c **** 	I2C_CLCD_MasterWriteByte(data);
  61              		.loc 1 448 0
  62 0026 2046     		mov	r0, r4
  63 0028 FFF7FEFF 		bl	I2C_1_MasterWriteByte
  64              	.LVL8:
 449:..\API/I2C_CLCD.c **** 
ARM GAS  C:\Users\koseki\AppData\Local\Temp\ccAZfmk4.s 			page 10


 450:..\API/I2C_CLCD.c ****     /* for FC-113 data position is 0xF0 */
 451:..\API/I2C_CLCD.c ****     data |= (I2C_CLCD_E | (nibble << I2C_CLCD_4BIT_DATA_SHIFT));
  65              		.loc 1 451 0
  66 002c 44EA0614 		orr	r4, r4, r6, lsl #4
  67              	.LVL9:
  68 0030 E4B2     		uxtb	r4, r4
  69              	.LVL10:
 452:..\API/I2C_CLCD.c **** 	I2C_CLCD_MasterWriteByte(data);
  70              		.loc 1 452 0
  71 0032 44F00400 		orr	r0, r4, #4
  72 0036 FFF7FEFF 		bl	I2C_1_MasterWriteByte
  73              	.LVL11:
 453:..\API/I2C_CLCD.c **** 
 454:..\API/I2C_CLCD.c ****     /* Minimum of 230 ns delay */
 455:..\API/I2C_CLCD.c ****     CyDelayUs(1u);
  74              		.loc 1 455 0
  75 003a 0120     		movs	r0, #1
  76 003c FFF7FEFF 		bl	CyDelayUs
  77              	.LVL12:
 456:..\API/I2C_CLCD.c **** 
 457:..\API/I2C_CLCD.c ****     data &= ((uint8)(~I2C_CLCD_E));
 458:..\API/I2C_CLCD.c **** 	I2C_CLCD_MasterWriteByte(data);
  78              		.loc 1 458 0
  79 0040 04F0FB00 		and	r0, r4, #251
  80 0044 FFF7FEFF 		bl	I2C_1_MasterWriteByte
  81              	.LVL13:
 459:..\API/I2C_CLCD.c ****     
 460:..\API/I2C_CLCD.c ****     CyDelayUs(1u);
  82              		.loc 1 460 0
  83 0048 0120     		movs	r0, #1
  84 004a FFF7FEFF 		bl	CyDelayUs
  85              	.LVL14:
 461:..\API/I2C_CLCD.c ****     I2C_1_MasterSendStop();
  86              		.loc 1 461 0
  87 004e FFF7FEFF 		bl	I2C_1_MasterSendStop
  88              	.LVL15:
  89 0052 70BD     		pop	{r4, r5, r6, pc}
  90              	.LVL16:
  91              	.L4:
  92              		.align	2
  93              	.L3:
  94 0054 00000000 		.word	.LANCHOR0
  95              		.cfi_endproc
  96              	.LFE11:
  97              		.size	I2C_CLCD_WrCntrlNib, .-I2C_CLCD_WrCntrlNib
  98              		.section	.text.I2C_CLCD_WrDatNib,"ax",%progbits
  99              		.align	2
 100              		.thumb
 101              		.thumb_func
 102              		.type	I2C_CLCD_WrDatNib, %function
 103              	I2C_CLCD_WrDatNib:
 104              	.LFB10:
 383:..\API/I2C_CLCD.c **** 	uint8 data = I2C_CLCD_BackLight;
 105              		.loc 1 383 0
 106              		.cfi_startproc
 107              		@ args = 0, pretend = 0, frame = 0
 108              		@ frame_needed = 0, uses_anonymous_args = 0
ARM GAS  C:\Users\koseki\AppData\Local\Temp\ccAZfmk4.s 			page 11


 109              	.LVL17:
 110 0000 38B5     		push	{r3, r4, r5, lr}
 111              		.cfi_def_cfa_offset 16
 112              		.cfi_offset 3, -16
 113              		.cfi_offset 4, -12
 114              		.cfi_offset 5, -8
 115              		.cfi_offset 14, -4
 116 0002 0546     		mov	r5, r0
 384:..\API/I2C_CLCD.c **** 
 117              		.loc 1 384 0
 118 0004 184B     		ldr	r3, .L7
 119 0006 1C78     		ldrb	r4, [r3]	@ zero_extendqisi2
 120              	.LVL18:
 386:..\API/I2C_CLCD.c ****     CyDelayUs(1u);
 121              		.loc 1 386 0
 122 0008 5878     		ldrb	r0, [r3, #1]	@ zero_extendqisi2
 123              	.LVL19:
 124 000a 0021     		movs	r1, #0
 125 000c FFF7FEFF 		bl	I2C_1_MasterSendStart
 126              	.LVL20:
 387:..\API/I2C_CLCD.c **** 
 127              		.loc 1 387 0
 128 0010 0120     		movs	r0, #1
 129 0012 FFF7FEFF 		bl	CyDelayUs
 130              	.LVL21:
 391:..\API/I2C_CLCD.c **** 
 131              		.loc 1 391 0
 132 0016 44F00100 		orr	r0, r4, #1
 133 001a FFF7FEFF 		bl	I2C_1_MasterWriteByte
 134              	.LVL22:
 394:..\API/I2C_CLCD.c **** 	I2C_CLCD_MasterWriteByte(data);
 135              		.loc 1 394 0
 136 001e 04F0FD00 		and	r0, r4, #253
 137              	.LVL23:
 395:..\API/I2C_CLCD.c **** 
 138              		.loc 1 395 0
 139 0022 40F00100 		orr	r0, r0, #1
 140              	.LVL24:
 141 0026 FFF7FEFF 		bl	I2C_1_MasterWriteByte
 142              	.LVL25:
 398:..\API/I2C_CLCD.c ****     
 143              		.loc 1 398 0
 144 002a 0020     		movs	r0, #0
 145 002c FFF7FEFF 		bl	CyDelayUs
 146              	.LVL26:
 401:..\API/I2C_CLCD.c **** 	I2C_CLCD_MasterWriteByte(data);
 147              		.loc 1 401 0
 148 0030 04F00D03 		and	r3, r4, #13
 149 0034 43F00104 		orr	r4, r3, #1
 150              	.LVL27:
 402:..\API/I2C_CLCD.c **** 
 151              		.loc 1 402 0
 152 0038 2046     		mov	r0, r4
 153 003a FFF7FEFF 		bl	I2C_1_MasterWriteByte
 154              	.LVL28:
 406:..\API/I2C_CLCD.c ****  	I2C_CLCD_MasterWriteByte(data);
 155              		.loc 1 406 0
ARM GAS  C:\Users\koseki\AppData\Local\Temp\ccAZfmk4.s 			page 12


 156 003e 44EA0514 		orr	r4, r4, r5, lsl #4
 157              	.LVL29:
 158 0042 E4B2     		uxtb	r4, r4
 159              	.LVL30:
 407:..\API/I2C_CLCD.c **** 
 160              		.loc 1 407 0
 161 0044 44F00400 		orr	r0, r4, #4
 162 0048 FFF7FEFF 		bl	I2C_1_MasterWriteByte
 163              	.LVL31:
 410:..\API/I2C_CLCD.c **** 
 164              		.loc 1 410 0
 165 004c 0120     		movs	r0, #1
 166 004e FFF7FEFF 		bl	CyDelayUs
 167              	.LVL32:
 413:..\API/I2C_CLCD.c **** 
 168              		.loc 1 413 0
 169 0052 04F0F900 		and	r0, r4, #249
 170 0056 FFF7FEFF 		bl	I2C_1_MasterWriteByte
 171              	.LVL33:
 415:..\API/I2C_CLCD.c ****     I2C_1_MasterSendStop();
 172              		.loc 1 415 0
 173 005a 0120     		movs	r0, #1
 174 005c FFF7FEFF 		bl	CyDelayUs
 175              	.LVL34:
 416:..\API/I2C_CLCD.c **** }
 176              		.loc 1 416 0
 177 0060 FFF7FEFF 		bl	I2C_1_MasterSendStop
 178              	.LVL35:
 179 0064 38BD     		pop	{r3, r4, r5, pc}
 180              	.LVL36:
 181              	.L8:
 182 0066 00BF     		.align	2
 183              	.L7:
 184 0068 00000000 		.word	.LANCHOR0
 185              		.cfi_endproc
 186              	.LFE10:
 187              		.size	I2C_CLCD_WrDatNib, .-I2C_CLCD_WrDatNib
 188              		.section	.text.I2C_CLCD_IsReady,"ax",%progbits
 189              		.align	2
 190              		.global	I2C_CLCD_IsReady
 191              		.thumb
 192              		.thumb_func
 193              		.type	I2C_CLCD_IsReady, %function
 194              	I2C_CLCD_IsReady:
 195              	.LFB9:
 357:..\API/I2C_CLCD.c ****     /*
 196              		.loc 1 357 0
 197              		.cfi_startproc
 198              		@ args = 0, pretend = 0, frame = 0
 199              		@ frame_needed = 0, uses_anonymous_args = 0
 200 0000 08B5     		push	{r3, lr}
 201              		.cfi_def_cfa_offset 8
 202              		.cfi_offset 3, -8
 203              		.cfi_offset 14, -4
 363:..\API/I2C_CLCD.c **** }
 204              		.loc 1 363 0
 205 0002 0120     		movs	r0, #1
ARM GAS  C:\Users\koseki\AppData\Local\Temp\ccAZfmk4.s 			page 13


 206 0004 FFF7FEFF 		bl	CyDelayUs
 207              	.LVL37:
 208 0008 08BD     		pop	{r3, pc}
 209              		.cfi_endproc
 210              	.LFE9:
 211              		.size	I2C_CLCD_IsReady, .-I2C_CLCD_IsReady
 212 000a 00BF     		.section	.text.I2C_CLCD_WriteData,"ax",%progbits
 213              		.align	2
 214              		.global	I2C_CLCD_WriteData
 215              		.thumb
 216              		.thumb_func
 217              		.type	I2C_CLCD_WriteData, %function
 218              	I2C_CLCD_WriteData:
 219              	.LFB7:
 296:..\API/I2C_CLCD.c ****     uint8 nibble;
 220              		.loc 1 296 0
 221              		.cfi_startproc
 222              		@ args = 0, pretend = 0, frame = 0
 223              		@ frame_needed = 0, uses_anonymous_args = 0
 224              	.LVL38:
 225 0000 10B5     		push	{r4, lr}
 226              		.cfi_def_cfa_offset 8
 227              		.cfi_offset 4, -8
 228              		.cfi_offset 14, -4
 229 0002 0446     		mov	r4, r0
 299:..\API/I2C_CLCD.c ****     nibble = dByte >> I2C_CLCD_NIBBLE_SHIFT;
 230              		.loc 1 299 0
 231 0004 FFF7FEFF 		bl	I2C_CLCD_IsReady
 232              	.LVL39:
 303:..\API/I2C_CLCD.c **** 
 233              		.loc 1 303 0
 234 0008 2009     		lsrs	r0, r4, #4
 235 000a FFF7FEFF 		bl	I2C_CLCD_WrDatNib
 236              	.LVL40:
 307:..\API/I2C_CLCD.c **** }
 237              		.loc 1 307 0
 238 000e 04F00F00 		and	r0, r4, #15
 239 0012 FFF7FEFF 		bl	I2C_CLCD_WrDatNib
 240              	.LVL41:
 241 0016 10BD     		pop	{r4, pc}
 242              		.cfi_endproc
 243              	.LFE7:
 244              		.size	I2C_CLCD_WriteData, .-I2C_CLCD_WriteData
 245              		.section	.text.I2C_CLCD_PrintString,"ax",%progbits
 246              		.align	2
 247              		.global	I2C_CLCD_PrintString
 248              		.thumb
 249              		.thumb_func
 250              		.type	I2C_CLCD_PrintString, %function
 251              	I2C_CLCD_PrintString:
 252              	.LFB5:
 245:..\API/I2C_CLCD.c ****     uint8 indexU8 = 1u;
 253              		.loc 1 245 0
 254              		.cfi_startproc
 255              		@ args = 0, pretend = 0, frame = 0
 256              		@ frame_needed = 0, uses_anonymous_args = 0
 257              	.LVL42:
ARM GAS  C:\Users\koseki\AppData\Local\Temp\ccAZfmk4.s 			page 14


 258 0000 38B5     		push	{r3, r4, r5, lr}
 259              		.cfi_def_cfa_offset 16
 260              		.cfi_offset 3, -16
 261              		.cfi_offset 4, -12
 262              		.cfi_offset 5, -8
 263              		.cfi_offset 14, -4
 264 0002 0546     		mov	r5, r0
 265              	.LVL43:
 247:..\API/I2C_CLCD.c **** 
 266              		.loc 1 247 0
 267 0004 0078     		ldrb	r0, [r0]	@ zero_extendqisi2
 268              	.LVL44:
 246:..\API/I2C_CLCD.c ****     char8 current = *string;
 269              		.loc 1 246 0
 270 0006 0124     		movs	r4, #1
 250:..\API/I2C_CLCD.c ****     {
 271              		.loc 1 250 0
 272 0008 04E0     		b	.L14
 273              	.LVL45:
 274              	.L15:
 252:..\API/I2C_CLCD.c ****         current = string[indexU8];
 275              		.loc 1 252 0
 276 000a FFF7FEFF 		bl	I2C_CLCD_WriteData
 277              	.LVL46:
 253:..\API/I2C_CLCD.c ****         indexU8++;
 278              		.loc 1 253 0
 279 000e 285D     		ldrb	r0, [r5, r4]	@ zero_extendqisi2
 280              	.LVL47:
 254:..\API/I2C_CLCD.c ****     }
 281              		.loc 1 254 0
 282 0010 0134     		adds	r4, r4, #1
 283              	.LVL48:
 284 0012 E4B2     		uxtb	r4, r4
 285              	.LVL49:
 286              	.L14:
 250:..\API/I2C_CLCD.c ****     {
 287              		.loc 1 250 0
 288 0014 0028     		cmp	r0, #0
 289 0016 F8D1     		bne	.L15
 256:..\API/I2C_CLCD.c **** 
 290              		.loc 1 256 0
 291 0018 38BD     		pop	{r3, r4, r5, pc}
 292              		.cfi_endproc
 293              	.LFE5:
 294              		.size	I2C_CLCD_PrintString, .-I2C_CLCD_PrintString
 295 001a 00BF     		.section	.text.I2C_CLCD_PutChar,"ax",%progbits
 296              		.align	2
 297              		.global	I2C_CLCD_PutChar
 298              		.thumb
 299              		.thumb_func
 300              		.type	I2C_CLCD_PutChar, %function
 301              	I2C_CLCD_PutChar:
 302              	.LFB6:
 276:..\API/I2C_CLCD.c ****     I2C_CLCD_WriteData((uint8)character);
 303              		.loc 1 276 0
 304              		.cfi_startproc
 305              		@ args = 0, pretend = 0, frame = 0
ARM GAS  C:\Users\koseki\AppData\Local\Temp\ccAZfmk4.s 			page 15


 306              		@ frame_needed = 0, uses_anonymous_args = 0
 307              	.LVL50:
 308 0000 08B5     		push	{r3, lr}
 309              		.cfi_def_cfa_offset 8
 310              		.cfi_offset 3, -8
 311              		.cfi_offset 14, -4
 277:..\API/I2C_CLCD.c **** }
 312              		.loc 1 277 0
 313 0002 FFF7FEFF 		bl	I2C_CLCD_WriteData
 314              	.LVL51:
 315 0006 08BD     		pop	{r3, pc}
 316              		.cfi_endproc
 317              	.LFE6:
 318              		.size	I2C_CLCD_PutChar, .-I2C_CLCD_PutChar
 319              		.section	.text.I2C_CLCD_WriteControl,"ax",%progbits
 320              		.align	2
 321              		.global	I2C_CLCD_WriteControl
 322              		.thumb
 323              		.thumb_func
 324              		.type	I2C_CLCD_WriteControl, %function
 325              	I2C_CLCD_WriteControl:
 326              	.LFB8:
 326:..\API/I2C_CLCD.c ****     uint8 nibble;
 327              		.loc 1 326 0
 328              		.cfi_startproc
 329              		@ args = 0, pretend = 0, frame = 0
 330              		@ frame_needed = 0, uses_anonymous_args = 0
 331              	.LVL52:
 332 0000 10B5     		push	{r4, lr}
 333              		.cfi_def_cfa_offset 8
 334              		.cfi_offset 4, -8
 335              		.cfi_offset 14, -4
 336 0002 0446     		mov	r4, r0
 329:..\API/I2C_CLCD.c **** 
 337              		.loc 1 329 0
 338 0004 FFF7FEFF 		bl	I2C_CLCD_IsReady
 339              	.LVL53:
 334:..\API/I2C_CLCD.c ****     nibble = cByte & I2C_CLCD_NIBBLE_MASK;
 340              		.loc 1 334 0
 341 0008 2009     		lsrs	r0, r4, #4
 342 000a FFF7FEFF 		bl	I2C_CLCD_WrCntrlNib
 343              	.LVL54:
 338:..\API/I2C_CLCD.c **** }
 344              		.loc 1 338 0
 345 000e 04F00F00 		and	r0, r4, #15
 346 0012 FFF7FEFF 		bl	I2C_CLCD_WrCntrlNib
 347              	.LVL55:
 348 0016 10BD     		pop	{r4, pc}
 349              		.cfi_endproc
 350              	.LFE8:
 351              		.size	I2C_CLCD_WriteControl, .-I2C_CLCD_WriteControl
 352              		.section	.text.I2C_CLCD_Init,"ax",%progbits
 353              		.align	2
 354              		.global	I2C_CLCD_Init
 355              		.thumb
 356              		.thumb_func
 357              		.type	I2C_CLCD_Init, %function
ARM GAS  C:\Users\koseki\AppData\Local\Temp\ccAZfmk4.s 			page 16


 358              	I2C_CLCD_Init:
 359              	.LFB0:
  71:..\API/I2C_CLCD.c ****     /* INIT CODE */
 360              		.loc 1 71 0
 361              		.cfi_startproc
 362              		@ args = 0, pretend = 0, frame = 0
 363              		@ frame_needed = 0, uses_anonymous_args = 0
 364 0000 08B5     		push	{r3, lr}
 365              		.cfi_def_cfa_offset 8
 366              		.cfi_offset 3, -8
 367              		.cfi_offset 14, -4
  73:..\API/I2C_CLCD.c ****     I2C_CLCD_WrCntrlNib(I2C_CLCD_DISPLAY_8_BIT_INIT);    /* Selects 8-bit mode */
 368              		.loc 1 73 0
 369 0002 2820     		movs	r0, #40
 370 0004 FFF7FEFF 		bl	CyDelay
 371              	.LVL56:
  74:..\API/I2C_CLCD.c ****     CyDelay(5u);                                                         /* Delay 5 ms */
 372              		.loc 1 74 0
 373 0008 0320     		movs	r0, #3
 374 000a FFF7FEFF 		bl	I2C_CLCD_WrCntrlNib
 375              	.LVL57:
  75:..\API/I2C_CLCD.c ****     I2C_CLCD_WrCntrlNib(I2C_CLCD_DISPLAY_8_BIT_INIT);    /* Selects 8-bit mode */
 376              		.loc 1 75 0
 377 000e 0520     		movs	r0, #5
 378 0010 FFF7FEFF 		bl	CyDelay
 379              	.LVL58:
  76:..\API/I2C_CLCD.c ****     CyDelay(15u);                                                        /* Delay 15 ms */
 380              		.loc 1 76 0
 381 0014 0320     		movs	r0, #3
 382 0016 FFF7FEFF 		bl	I2C_CLCD_WrCntrlNib
 383              	.LVL59:
  77:..\API/I2C_CLCD.c ****     I2C_CLCD_WrCntrlNib(I2C_CLCD_DISPLAY_8_BIT_INIT);    /* Selects 8-bit mode */
 384              		.loc 1 77 0
 385 001a 0F20     		movs	r0, #15
 386 001c FFF7FEFF 		bl	CyDelay
 387              	.LVL60:
  78:..\API/I2C_CLCD.c ****     CyDelay(1u);                                                         /* Delay 1 ms */
 388              		.loc 1 78 0
 389 0020 0320     		movs	r0, #3
 390 0022 FFF7FEFF 		bl	I2C_CLCD_WrCntrlNib
 391              	.LVL61:
  79:..\API/I2C_CLCD.c ****     I2C_CLCD_WrCntrlNib(I2C_CLCD_DISPLAY_4_BIT_INIT);    /* Selects 4-bit mode */
 392              		.loc 1 79 0
 393 0026 0120     		movs	r0, #1
 394 0028 FFF7FEFF 		bl	CyDelay
 395              	.LVL62:
  80:..\API/I2C_CLCD.c ****     CyDelay(5u);                                                         /* Delay 5 ms */
 396              		.loc 1 80 0
 397 002c 0220     		movs	r0, #2
 398 002e FFF7FEFF 		bl	I2C_CLCD_WrCntrlNib
 399              	.LVL63:
  81:..\API/I2C_CLCD.c **** 
 400              		.loc 1 81 0
 401 0032 0520     		movs	r0, #5
 402 0034 FFF7FEFF 		bl	CyDelay
 403              	.LVL64:
  83:..\API/I2C_CLCD.c ****     I2C_CLCD_WriteControl(I2C_CLCD_DISPLAY_CURSOR_ON);      /* Turn Display, Cursor ON */
ARM GAS  C:\Users\koseki\AppData\Local\Temp\ccAZfmk4.s 			page 17


 404              		.loc 1 83 0
 405 0038 0620     		movs	r0, #6
 406 003a FFF7FEFF 		bl	I2C_CLCD_WriteControl
 407              	.LVL65:
  84:..\API/I2C_CLCD.c ****     I2C_CLCD_WriteControl(I2C_CLCD_DISPLAY_2_LINES_5x10);   /* 2 Lines by 5x10 Characters */
 408              		.loc 1 84 0
 409 003e 0E20     		movs	r0, #14
 410 0040 FFF7FEFF 		bl	I2C_CLCD_WriteControl
 411              	.LVL66:
  85:..\API/I2C_CLCD.c ****     I2C_CLCD_WriteControl(I2C_CLCD_DISPLAY_CURSOR_OFF);     /* Turn Display, Cursor OFF */
 412              		.loc 1 85 0
 413 0044 2C20     		movs	r0, #44
 414 0046 FFF7FEFF 		bl	I2C_CLCD_WriteControl
 415              	.LVL67:
  86:..\API/I2C_CLCD.c ****     I2C_CLCD_WriteControl(I2C_CLCD_CLEAR_DISPLAY);          /* Clear LCD Screen */
 416              		.loc 1 86 0
 417 004a 0820     		movs	r0, #8
 418 004c FFF7FEFF 		bl	I2C_CLCD_WriteControl
 419              	.LVL68:
  87:..\API/I2C_CLCD.c ****     I2C_CLCD_WriteControl(I2C_CLCD_DISPLAY_ON_CURSOR_OFF);  /* Turn Display ON, Cursor OFF */
 420              		.loc 1 87 0
 421 0050 0120     		movs	r0, #1
 422 0052 FFF7FEFF 		bl	I2C_CLCD_WriteControl
 423              	.LVL69:
  88:..\API/I2C_CLCD.c ****     I2C_CLCD_WriteControl(I2C_CLCD_RESET_CURSOR_POSITION);  /* Set Cursor to 0,0 */
 424              		.loc 1 88 0
 425 0056 0C20     		movs	r0, #12
 426 0058 FFF7FEFF 		bl	I2C_CLCD_WriteControl
 427              	.LVL70:
  89:..\API/I2C_CLCD.c ****     CyDelay(5u);
 428              		.loc 1 89 0
 429 005c 0320     		movs	r0, #3
 430 005e FFF7FEFF 		bl	I2C_CLCD_WriteControl
 431              	.LVL71:
  90:..\API/I2C_CLCD.c **** }
 432              		.loc 1 90 0
 433 0062 0520     		movs	r0, #5
 434 0064 FFF7FEFF 		bl	CyDelay
 435              	.LVL72:
 436 0068 08BD     		pop	{r3, pc}
 437              		.cfi_endproc
 438              	.LFE0:
 439              		.size	I2C_CLCD_Init, .-I2C_CLCD_Init
 440 006a 00BF     		.section	.text.I2C_CLCD_Enable,"ax",%progbits
 441              		.align	2
 442              		.global	I2C_CLCD_Enable
 443              		.thumb
 444              		.thumb_func
 445              		.type	I2C_CLCD_Enable, %function
 446              	I2C_CLCD_Enable:
 447              	.LFB1:
 116:..\API/I2C_CLCD.c ****     I2C_CLCD_DisplayOn();
 448              		.loc 1 116 0
 449              		.cfi_startproc
 450              		@ args = 0, pretend = 0, frame = 0
 451              		@ frame_needed = 0, uses_anonymous_args = 0
 452 0000 08B5     		push	{r3, lr}
ARM GAS  C:\Users\koseki\AppData\Local\Temp\ccAZfmk4.s 			page 18


 453              		.cfi_def_cfa_offset 8
 454              		.cfi_offset 3, -8
 455              		.cfi_offset 14, -4
 117:..\API/I2C_CLCD.c ****     I2C_CLCD_enableState = 1u;
 456              		.loc 1 117 0
 457 0002 0C20     		movs	r0, #12
 458 0004 FFF7FEFF 		bl	I2C_CLCD_WriteControl
 459              	.LVL73:
 118:..\API/I2C_CLCD.c **** }
 460              		.loc 1 118 0
 461 0008 0122     		movs	r2, #1
 462 000a 014B     		ldr	r3, .L25
 463 000c 1A70     		strb	r2, [r3]
 464 000e 08BD     		pop	{r3, pc}
 465              	.L26:
 466              		.align	2
 467              	.L25:
 468 0010 00000000 		.word	.LANCHOR1
 469              		.cfi_endproc
 470              	.LFE1:
 471              		.size	I2C_CLCD_Enable, .-I2C_CLCD_Enable
 472              		.section	.text.I2C_CLCD_Start,"ax",%progbits
 473              		.align	2
 474              		.global	I2C_CLCD_Start
 475              		.thumb
 476              		.thumb_func
 477              		.type	I2C_CLCD_Start, %function
 478              	I2C_CLCD_Start:
 479              	.LFB2:
 149:..\API/I2C_CLCD.c ****     /* If not initialized, perform initialization */
 480              		.loc 1 149 0
 481              		.cfi_startproc
 482              		@ args = 0, pretend = 0, frame = 0
 483              		@ frame_needed = 0, uses_anonymous_args = 0
 484 0000 08B5     		push	{r3, lr}
 485              		.cfi_def_cfa_offset 8
 486              		.cfi_offset 3, -8
 487              		.cfi_offset 14, -4
 151:..\API/I2C_CLCD.c ****     {
 488              		.loc 1 151 0
 489 0002 054B     		ldr	r3, .L30
 490 0004 5B78     		ldrb	r3, [r3, #1]	@ zero_extendqisi2
 491 0006 23B9     		cbnz	r3, .L28
 153:..\API/I2C_CLCD.c ****         I2C_CLCD_initVar = 1u;
 492              		.loc 1 153 0
 493 0008 FFF7FEFF 		bl	I2C_CLCD_Init
 494              	.LVL74:
 154:..\API/I2C_CLCD.c ****     }
 495              		.loc 1 154 0
 496 000c 0122     		movs	r2, #1
 497 000e 024B     		ldr	r3, .L30
 498 0010 5A70     		strb	r2, [r3, #1]
 499              	.L28:
 158:..\API/I2C_CLCD.c **** }
 500              		.loc 1 158 0
 501 0012 FFF7FEFF 		bl	I2C_CLCD_Enable
 502              	.LVL75:
ARM GAS  C:\Users\koseki\AppData\Local\Temp\ccAZfmk4.s 			page 19


 503 0016 08BD     		pop	{r3, pc}
 504              	.L31:
 505              		.align	2
 506              	.L30:
 507 0018 00000000 		.word	.LANCHOR1
 508              		.cfi_endproc
 509              	.LFE2:
 510              		.size	I2C_CLCD_Start, .-I2C_CLCD_Start
 511              		.section	.text.I2C_CLCD_Stop,"ax",%progbits
 512              		.align	2
 513              		.global	I2C_CLCD_Stop
 514              		.thumb
 515              		.thumb_func
 516              		.type	I2C_CLCD_Stop, %function
 517              	I2C_CLCD_Stop:
 518              	.LFB3:
 180:..\API/I2C_CLCD.c ****     /* Calls LCD Off Macro */
 519              		.loc 1 180 0
 520              		.cfi_startproc
 521              		@ args = 0, pretend = 0, frame = 0
 522              		@ frame_needed = 0, uses_anonymous_args = 0
 523 0000 08B5     		push	{r3, lr}
 524              		.cfi_def_cfa_offset 8
 525              		.cfi_offset 3, -8
 526              		.cfi_offset 14, -4
 182:..\API/I2C_CLCD.c ****     I2C_CLCD_enableState = 0u;
 527              		.loc 1 182 0
 528 0002 0820     		movs	r0, #8
 529 0004 FFF7FEFF 		bl	I2C_CLCD_WriteControl
 530              	.LVL76:
 183:..\API/I2C_CLCD.c **** }
 531              		.loc 1 183 0
 532 0008 0022     		movs	r2, #0
 533 000a 014B     		ldr	r3, .L34
 534 000c 1A70     		strb	r2, [r3]
 535 000e 08BD     		pop	{r3, pc}
 536              	.L35:
 537              		.align	2
 538              	.L34:
 539 0010 00000000 		.word	.LANCHOR1
 540              		.cfi_endproc
 541              	.LFE3:
 542              		.size	I2C_CLCD_Stop, .-I2C_CLCD_Stop
 543              		.section	.text.I2C_CLCD_Position,"ax",%progbits
 544              		.align	2
 545              		.global	I2C_CLCD_Position
 546              		.thumb
 547              		.thumb_func
 548              		.type	I2C_CLCD_Position, %function
 549              	I2C_CLCD_Position:
 550              	.LFB4:
 208:..\API/I2C_CLCD.c ****     switch (row)
 551              		.loc 1 208 0
 552              		.cfi_startproc
 553              		@ args = 0, pretend = 0, frame = 0
 554              		@ frame_needed = 0, uses_anonymous_args = 0
 555              	.LVL77:
ARM GAS  C:\Users\koseki\AppData\Local\Temp\ccAZfmk4.s 			page 20


 556 0000 08B5     		push	{r3, lr}
 557              		.cfi_def_cfa_offset 8
 558              		.cfi_offset 3, -8
 559              		.cfi_offset 14, -4
 209:..\API/I2C_CLCD.c ****     {
 560              		.loc 1 209 0
 561 0002 0328     		cmp	r0, #3
 562 0004 19D8     		bhi	.L36
 563 0006 DFE800F0 		tbb	[pc, r0]
 564              	.L39:
 565 000a 02       		.byte	(.L38-.L39)/2
 566 000b 07       		.byte	(.L40-.L39)/2
 567 000c 0D       		.byte	(.L41-.L39)/2
 568 000d 13       		.byte	(.L42-.L39)/2
 569              		.p2align 1
 570              	.L38:
 212:..\API/I2C_CLCD.c ****             break;
 571              		.loc 1 212 0
 572 000e 81F08000 		eor	r0, r1, #128
 573              	.LVL78:
 574 0012 FFF7FEFF 		bl	I2C_CLCD_WriteControl
 575              	.LVL79:
 213:..\API/I2C_CLCD.c ****         case (uint8) 1:
 576              		.loc 1 213 0
 577 0016 08BD     		pop	{r3, pc}
 578              	.LVL80:
 579              	.L40:
 215:..\API/I2C_CLCD.c ****             break;
 580              		.loc 1 215 0
 581 0018 A1F14000 		sub	r0, r1, #64
 582              	.LVL81:
 583 001c C0B2     		uxtb	r0, r0
 584 001e FFF7FEFF 		bl	I2C_CLCD_WriteControl
 585              	.LVL82:
 216:..\API/I2C_CLCD.c ****         case (uint8) 2:
 586              		.loc 1 216 0
 587 0022 08BD     		pop	{r3, pc}
 588              	.LVL83:
 589              	.L41:
 218:..\API/I2C_CLCD.c ****             break;
 590              		.loc 1 218 0
 591 0024 A1F16C00 		sub	r0, r1, #108
 592              	.LVL84:
 593 0028 C0B2     		uxtb	r0, r0
 594 002a FFF7FEFF 		bl	I2C_CLCD_WriteControl
 595              	.LVL85:
 219:..\API/I2C_CLCD.c ****         case (uint8) 3:
 596              		.loc 1 219 0
 597 002e 08BD     		pop	{r3, pc}
 598              	.LVL86:
 599              	.L42:
 221:..\API/I2C_CLCD.c ****             break;
 600              		.loc 1 221 0
 601 0030 A1F12C00 		sub	r0, r1, #44
 602              	.LVL87:
 603 0034 C0B2     		uxtb	r0, r0
 604 0036 FFF7FEFF 		bl	I2C_CLCD_WriteControl
ARM GAS  C:\Users\koseki\AppData\Local\Temp\ccAZfmk4.s 			page 21


 605              	.LVL88:
 606              	.L36:
 607 003a 08BD     		pop	{r3, pc}
 608              		.cfi_endproc
 609              	.LFE4:
 610              		.size	I2C_CLCD_Position, .-I2C_CLCD_Position
 611              		.section	.text.I2C_CLCD_PrintInt8,"ax",%progbits
 612              		.align	2
 613              		.global	I2C_CLCD_PrintInt8
 614              		.thumb
 615              		.thumb_func
 616              		.type	I2C_CLCD_PrintInt8, %function
 617              	I2C_CLCD_PrintInt8:
 618              	.LFB12:
 462:..\API/I2C_CLCD.c **** }
 463:..\API/I2C_CLCD.c **** 
 464:..\API/I2C_CLCD.c **** #if(I2C_CLCD_CONVERSION_ROUTINES == 1u)
 465:..\API/I2C_CLCD.c **** 
 466:..\API/I2C_CLCD.c ****     /*******************************************************************************
 467:..\API/I2C_CLCD.c ****     *  Function Name: I2C_CLCD_PrintInt8
 468:..\API/I2C_CLCD.c ****     ********************************************************************************
 469:..\API/I2C_CLCD.c ****     *
 470:..\API/I2C_CLCD.c ****     * Summary:
 471:..\API/I2C_CLCD.c ****     *  Print a byte as two ASCII characters.
 472:..\API/I2C_CLCD.c ****     *
 473:..\API/I2C_CLCD.c ****     * Parameters:
 474:..\API/I2C_CLCD.c ****     *  value: The byte to be printed out as ASCII characters.
 475:..\API/I2C_CLCD.c ****     *
 476:..\API/I2C_CLCD.c ****     * Return:
 477:..\API/I2C_CLCD.c ****     *  None.
 478:..\API/I2C_CLCD.c ****     *
 479:..\API/I2C_CLCD.c ****     *******************************************************************************/
 480:..\API/I2C_CLCD.c ****     void I2C_CLCD_PrintInt8(uint8 value) 
 481:..\API/I2C_CLCD.c ****     {
 619              		.loc 1 481 0
 620              		.cfi_startproc
 621              		@ args = 0, pretend = 0, frame = 0
 622              		@ frame_needed = 0, uses_anonymous_args = 0
 623              	.LVL89:
 624 0000 38B5     		push	{r3, r4, r5, lr}
 625              		.cfi_def_cfa_offset 16
 626              		.cfi_offset 3, -16
 627              		.cfi_offset 4, -12
 628              		.cfi_offset 5, -8
 629              		.cfi_offset 14, -4
 630 0002 0446     		mov	r4, r0
 482:..\API/I2C_CLCD.c ****         static char8 const CYCODE I2C_CLCD_hex[16u] = "0123456789ABCDEF";
 483:..\API/I2C_CLCD.c ****         
 484:..\API/I2C_CLCD.c ****         I2C_CLCD_PutChar((char8) I2C_CLCD_hex[value >> I2C_CLCD_BYTE_UPPER_NIBBLE_SHIFT]);
 631              		.loc 1 484 0
 632 0004 0309     		lsrs	r3, r0, #4
 633 0006 054D     		ldr	r5, .L46
 634 0008 E85C     		ldrb	r0, [r5, r3]	@ zero_extendqisi2
 635              	.LVL90:
 636 000a FFF7FEFF 		bl	I2C_CLCD_PutChar
 637              	.LVL91:
 485:..\API/I2C_CLCD.c ****         I2C_CLCD_PutChar((char8) I2C_CLCD_hex[value & I2C_CLCD_BYTE_LOWER_NIBBLE_MASK]);
ARM GAS  C:\Users\koseki\AppData\Local\Temp\ccAZfmk4.s 			page 22


 638              		.loc 1 485 0
 639 000e 04F00F04 		and	r4, r4, #15
 640 0012 285D     		ldrb	r0, [r5, r4]	@ zero_extendqisi2
 641 0014 FFF7FEFF 		bl	I2C_CLCD_PutChar
 642              	.LVL92:
 643 0018 38BD     		pop	{r3, r4, r5, pc}
 644              	.L47:
 645 001a 00BF     		.align	2
 646              	.L46:
 647 001c 00000000 		.word	.LANCHOR2
 648              		.cfi_endproc
 649              	.LFE12:
 650              		.size	I2C_CLCD_PrintInt8, .-I2C_CLCD_PrintInt8
 651              		.section	.text.I2C_CLCD_PrintInt16,"ax",%progbits
 652              		.align	2
 653              		.global	I2C_CLCD_PrintInt16
 654              		.thumb
 655              		.thumb_func
 656              		.type	I2C_CLCD_PrintInt16, %function
 657              	I2C_CLCD_PrintInt16:
 658              	.LFB13:
 486:..\API/I2C_CLCD.c ****     }
 487:..\API/I2C_CLCD.c **** 
 488:..\API/I2C_CLCD.c **** 
 489:..\API/I2C_CLCD.c ****     /*******************************************************************************
 490:..\API/I2C_CLCD.c ****     *  Function Name: I2C_CLCD_PrintInt16
 491:..\API/I2C_CLCD.c ****     ********************************************************************************
 492:..\API/I2C_CLCD.c ****     *
 493:..\API/I2C_CLCD.c ****     * Summary:
 494:..\API/I2C_CLCD.c ****     *  Print a uint16 as four ASCII characters.
 495:..\API/I2C_CLCD.c ****     *
 496:..\API/I2C_CLCD.c ****     * Parameters:
 497:..\API/I2C_CLCD.c ****     *  value: The uint16 to be printed out as ASCII characters.
 498:..\API/I2C_CLCD.c ****     *
 499:..\API/I2C_CLCD.c ****     * Return:
 500:..\API/I2C_CLCD.c ****     *  None.
 501:..\API/I2C_CLCD.c ****     *
 502:..\API/I2C_CLCD.c ****     *******************************************************************************/
 503:..\API/I2C_CLCD.c ****     void I2C_CLCD_PrintInt16(uint16 value) 
 504:..\API/I2C_CLCD.c ****     {
 659              		.loc 1 504 0
 660              		.cfi_startproc
 661              		@ args = 0, pretend = 0, frame = 0
 662              		@ frame_needed = 0, uses_anonymous_args = 0
 663              	.LVL93:
 664 0000 10B5     		push	{r4, lr}
 665              		.cfi_def_cfa_offset 8
 666              		.cfi_offset 4, -8
 667              		.cfi_offset 14, -4
 668 0002 0446     		mov	r4, r0
 505:..\API/I2C_CLCD.c ****         I2C_CLCD_PrintInt8((uint8)(value >> I2C_CLCD_U16_UPPER_BYTE_SHIFT));
 669              		.loc 1 505 0
 670 0004 000A     		lsrs	r0, r0, #8
 671              	.LVL94:
 672 0006 FFF7FEFF 		bl	I2C_CLCD_PrintInt8
 673              	.LVL95:
 506:..\API/I2C_CLCD.c ****         I2C_CLCD_PrintInt8((uint8)(value & I2C_CLCD_U16_LOWER_BYTE_MASK));
ARM GAS  C:\Users\koseki\AppData\Local\Temp\ccAZfmk4.s 			page 23


 674              		.loc 1 506 0
 675 000a E0B2     		uxtb	r0, r4
 676 000c FFF7FEFF 		bl	I2C_CLCD_PrintInt8
 677              	.LVL96:
 678 0010 10BD     		pop	{r4, pc}
 679              		.cfi_endproc
 680              	.LFE13:
 681              		.size	I2C_CLCD_PrintInt16, .-I2C_CLCD_PrintInt16
 682 0012 00BF     		.section	.text.I2C_CLCD_PrintInt32,"ax",%progbits
 683              		.align	2
 684              		.global	I2C_CLCD_PrintInt32
 685              		.thumb
 686              		.thumb_func
 687              		.type	I2C_CLCD_PrintInt32, %function
 688              	I2C_CLCD_PrintInt32:
 689              	.LFB14:
 507:..\API/I2C_CLCD.c ****     }
 508:..\API/I2C_CLCD.c **** 
 509:..\API/I2C_CLCD.c ****     
 510:..\API/I2C_CLCD.c ****     /*******************************************************************************
 511:..\API/I2C_CLCD.c ****     *  Function Name: I2C_CLCD_PrintInt32
 512:..\API/I2C_CLCD.c ****     ********************************************************************************
 513:..\API/I2C_CLCD.c ****     *
 514:..\API/I2C_CLCD.c ****     * Summary:
 515:..\API/I2C_CLCD.c ****     *  Print a uint32 hexadecimal number as eight ASCII characters.
 516:..\API/I2C_CLCD.c ****     *
 517:..\API/I2C_CLCD.c ****     * Parameters:
 518:..\API/I2C_CLCD.c ****     *  value: The uint32 to be printed out as ASCII characters.
 519:..\API/I2C_CLCD.c ****     *
 520:..\API/I2C_CLCD.c ****     * Return:
 521:..\API/I2C_CLCD.c ****     *  None.
 522:..\API/I2C_CLCD.c ****     *
 523:..\API/I2C_CLCD.c ****     *******************************************************************************/
 524:..\API/I2C_CLCD.c ****     void I2C_CLCD_PrintInt32(uint32 value) 
 525:..\API/I2C_CLCD.c ****     {
 690              		.loc 1 525 0
 691              		.cfi_startproc
 692              		@ args = 0, pretend = 0, frame = 0
 693              		@ frame_needed = 0, uses_anonymous_args = 0
 694              	.LVL97:
 695 0000 38B5     		push	{r3, r4, r5, lr}
 696              		.cfi_def_cfa_offset 16
 697              		.cfi_offset 3, -16
 698              		.cfi_offset 4, -12
 699              		.cfi_offset 5, -8
 700              		.cfi_offset 14, -4
 701 0002 0546     		mov	r5, r0
 702              	.LVL98:
 526:..\API/I2C_CLCD.c ****         uint8 shift = I2C_CLCD_32_BIT_SHIFT;
 703              		.loc 1 526 0
 704 0004 2024     		movs	r4, #32
 527:..\API/I2C_CLCD.c ****         
 528:..\API/I2C_CLCD.c ****         while (shift != 0u)
 705              		.loc 1 528 0
 706 0006 06E0     		b	.L51
 707              	.LVL99:
 708              	.L52:
ARM GAS  C:\Users\koseki\AppData\Local\Temp\ccAZfmk4.s 			page 24


 529:..\API/I2C_CLCD.c ****         {
 530:..\API/I2C_CLCD.c ****             /* "shift" var should be subtracted by 8 prior shifting. This implements 
 531:..\API/I2C_CLCD.c ****             * shifting by 24, 16, 8 and 0u. 
 532:..\API/I2C_CLCD.c ****             */
 533:..\API/I2C_CLCD.c ****             shift -= I2C_CLCD_8_BIT_SHIFT;
 709              		.loc 1 533 0
 710 0008 083C     		subs	r4, r4, #8
 711              	.LVL100:
 712 000a E4B2     		uxtb	r4, r4
 713              	.LVL101:
 534:..\API/I2C_CLCD.c ****             
 535:..\API/I2C_CLCD.c ****             /* Print 8 bits of uint32 hex number */
 536:..\API/I2C_CLCD.c ****             I2C_CLCD_PrintInt8((uint8) ((uint32) (value >> shift)));
 714              		.loc 1 536 0
 715 000c 25FA04F0 		lsr	r0, r5, r4
 716 0010 C0B2     		uxtb	r0, r0
 717 0012 FFF7FEFF 		bl	I2C_CLCD_PrintInt8
 718              	.LVL102:
 719              	.L51:
 528:..\API/I2C_CLCD.c ****         {
 720              		.loc 1 528 0
 721 0016 002C     		cmp	r4, #0
 722 0018 F6D1     		bne	.L52
 537:..\API/I2C_CLCD.c ****         }
 538:..\API/I2C_CLCD.c ****     }
 723              		.loc 1 538 0
 724 001a 38BD     		pop	{r3, r4, r5, pc}
 725              		.cfi_endproc
 726              	.LFE14:
 727              		.size	I2C_CLCD_PrintInt32, .-I2C_CLCD_PrintInt32
 728              		.section	.text.I2C_CLCD_PrintU32Number,"ax",%progbits
 729              		.align	2
 730              		.global	I2C_CLCD_PrintU32Number
 731              		.thumb
 732              		.thumb_func
 733              		.type	I2C_CLCD_PrintU32Number, %function
 734              	I2C_CLCD_PrintU32Number:
 735              	.LFB15:
 539:..\API/I2C_CLCD.c ****     
 540:..\API/I2C_CLCD.c ****     
 541:..\API/I2C_CLCD.c ****     /*******************************************************************************
 542:..\API/I2C_CLCD.c ****     *  Function Name: I2C_CLCD_PrintNumber
 543:..\API/I2C_CLCD.c ****     ********************************************************************************
 544:..\API/I2C_CLCD.c ****     *
 545:..\API/I2C_CLCD.c ****     * Summary:
 546:..\API/I2C_CLCD.c ****     *  Print an uint16 value as a left-justified decimal value.
 547:..\API/I2C_CLCD.c ****     *
 548:..\API/I2C_CLCD.c ****     * Parameters:
 549:..\API/I2C_CLCD.c ****     *  value: A 16-bit value to be printed in ASCII characters as a decimal number
 550:..\API/I2C_CLCD.c ****     *
 551:..\API/I2C_CLCD.c ****     * Return:
 552:..\API/I2C_CLCD.c ****     *  None.
 553:..\API/I2C_CLCD.c ****     *
 554:..\API/I2C_CLCD.c ****     * Note:
 555:..\API/I2C_CLCD.c ****     *  This function is implemented as a macro.
 556:..\API/I2C_CLCD.c ****     *
 557:..\API/I2C_CLCD.c ****     *******************************************************************************/
ARM GAS  C:\Users\koseki\AppData\Local\Temp\ccAZfmk4.s 			page 25


 558:..\API/I2C_CLCD.c **** 
 559:..\API/I2C_CLCD.c ****     
 560:..\API/I2C_CLCD.c ****     /*******************************************************************************
 561:..\API/I2C_CLCD.c ****     *  Function Name: I2C_CLCD_PrintU32Number
 562:..\API/I2C_CLCD.c ****     ********************************************************************************
 563:..\API/I2C_CLCD.c ****     *
 564:..\API/I2C_CLCD.c ****     * Summary:
 565:..\API/I2C_CLCD.c ****     *  Print an uint32 value as a left-justified decimal value.
 566:..\API/I2C_CLCD.c ****     *
 567:..\API/I2C_CLCD.c ****     * Parameters:
 568:..\API/I2C_CLCD.c ****     *  value: A 32-bit value to be printed in ASCII characters as a decimal number
 569:..\API/I2C_CLCD.c ****     *
 570:..\API/I2C_CLCD.c ****     * Return:
 571:..\API/I2C_CLCD.c ****     *  None.
 572:..\API/I2C_CLCD.c ****     *
 573:..\API/I2C_CLCD.c ****     *******************************************************************************/
 574:..\API/I2C_CLCD.c ****     void I2C_CLCD_PrintU32Number(uint32 value) 
 575:..\API/I2C_CLCD.c ****     {
 736              		.loc 1 575 0
 737              		.cfi_startproc
 738              		@ args = 0, pretend = 0, frame = 16
 739              		@ frame_needed = 0, uses_anonymous_args = 0
 740              	.LVL103:
 741 0000 00B5     		push	{lr}
 742              		.cfi_def_cfa_offset 4
 743              		.cfi_offset 14, -4
 744 0002 85B0     		sub	sp, sp, #20
 745              		.cfi_def_cfa_offset 24
 746              	.LVL104:
 576:..\API/I2C_CLCD.c ****         uint8 tmpDigit;
 577:..\API/I2C_CLCD.c ****         char8 number[I2C_CLCD_NUMBER_OF_REMAINDERS_U32 + 1u];
 578:..\API/I2C_CLCD.c ****         uint8 digIndex = I2C_CLCD_NUMBER_OF_REMAINDERS_U32;
 579:..\API/I2C_CLCD.c ****         
 580:..\API/I2C_CLCD.c ****         /* This API will output a decimal number as a string and that string will be 
 581:..\API/I2C_CLCD.c ****         * filled from end to start. Set Null termination character first.
 582:..\API/I2C_CLCD.c ****         */
 583:..\API/I2C_CLCD.c ****         number[digIndex] = (char8) '\0';
 747              		.loc 1 583 0
 748 0004 0023     		movs	r3, #0
 749 0006 8DF80E30 		strb	r3, [sp, #14]
 750              	.LVL105:
 584:..\API/I2C_CLCD.c ****         digIndex--;
 751              		.loc 1 584 0
 752 000a 0922     		movs	r2, #9
 585:..\API/I2C_CLCD.c ****         
 586:..\API/I2C_CLCD.c ****         /* Load these in reverse order */
 587:..\API/I2C_CLCD.c ****         while(value >= I2C_CLCD_TEN)
 753              		.loc 1 587 0
 754 000c 10E0     		b	.L55
 755              	.LVL106:
 756              	.L56:
 588:..\API/I2C_CLCD.c ****         {
 589:..\API/I2C_CLCD.c ****             /* Extract decimal digit, indexed by 'digIndex', from 'value' and
 590:..\API/I2C_CLCD.c ****             * convert it to ASCII character.
 591:..\API/I2C_CLCD.c ****             */
 592:..\API/I2C_CLCD.c ****             tmpDigit = (uint8) (((uint8) (value % I2C_CLCD_TEN)) + (uint8) I2C_CLCD_ZERO_CHAR_ASCII
 757              		.loc 1 592 0
ARM GAS  C:\Users\koseki\AppData\Local\Temp\ccAZfmk4.s 			page 26


 758 000e 134B     		ldr	r3, .L58
 759 0010 A3FB0013 		umull	r1, r3, r3, r0
 760 0014 DB08     		lsrs	r3, r3, #3
 761 0016 1946     		mov	r1, r3
 762 0018 03EB8303 		add	r3, r3, r3, lsl #2
 763 001c 5B00     		lsls	r3, r3, #1
 764 001e C31A     		subs	r3, r0, r3
 765 0020 3033     		adds	r3, r3, #48
 766              	.LVL107:
 593:..\API/I2C_CLCD.c ****             
 594:..\API/I2C_CLCD.c ****             /* Temporary variable 'tmpDigit' is used to avoid Violation of MISRA rule 
 595:..\API/I2C_CLCD.c ****             * #10.3.
 596:..\API/I2C_CLCD.c ****             */
 597:..\API/I2C_CLCD.c ****             number[digIndex] = (char8) tmpDigit;
 767              		.loc 1 597 0
 768 0022 04A8     		add	r0, sp, #16
 769              	.LVL108:
 770 0024 1044     		add	r0, r0, r2
 771 0026 00F80C3C 		strb	r3, [r0, #-12]
 598:..\API/I2C_CLCD.c ****             value /= I2C_CLCD_TEN;
 772              		.loc 1 598 0
 773 002a 0846     		mov	r0, r1
 774              	.LVL109:
 599:..\API/I2C_CLCD.c ****             digIndex--;
 775              		.loc 1 599 0
 776 002c 013A     		subs	r2, r2, #1
 777              	.LVL110:
 778 002e D2B2     		uxtb	r2, r2
 779              	.LVL111:
 780              	.L55:
 587:..\API/I2C_CLCD.c ****         {
 781              		.loc 1 587 0
 782 0030 0928     		cmp	r0, #9
 783 0032 ECD8     		bhi	.L56
 600:..\API/I2C_CLCD.c ****         }
 601:..\API/I2C_CLCD.c ****         
 602:..\API/I2C_CLCD.c ****         /* Extract last decimal digit 'digIndex', from the 'value' and convert it
 603:..\API/I2C_CLCD.c ****         * to ASCII character.
 604:..\API/I2C_CLCD.c ****         */
 605:..\API/I2C_CLCD.c ****         tmpDigit = (uint8) (((uint8)(value % I2C_CLCD_TEN)) + (uint8) I2C_CLCD_ZERO_CHAR_ASCII);
 784              		.loc 1 605 0
 785 0034 094B     		ldr	r3, .L58
 786 0036 A3FB0013 		umull	r1, r3, r3, r0
 787 003a DB08     		lsrs	r3, r3, #3
 788 003c 03EB8303 		add	r3, r3, r3, lsl #2
 789 0040 5B00     		lsls	r3, r3, #1
 790 0042 C31A     		subs	r3, r0, r3
 791 0044 3033     		adds	r3, r3, #48
 792              	.LVL112:
 606:..\API/I2C_CLCD.c ****         number[digIndex] = (char8) tmpDigit;
 793              		.loc 1 606 0
 794 0046 04A9     		add	r1, sp, #16
 795 0048 1144     		add	r1, r1, r2
 796 004a 01F80C3C 		strb	r3, [r1, #-12]
 607:..\API/I2C_CLCD.c **** 
 608:..\API/I2C_CLCD.c ****         /* Print out number */
 609:..\API/I2C_CLCD.c ****         I2C_CLCD_PrintString(&number[digIndex]);
ARM GAS  C:\Users\koseki\AppData\Local\Temp\ccAZfmk4.s 			page 27


 797              		.loc 1 609 0
 798 004e 01AB     		add	r3, sp, #4
 799              	.LVL113:
 800 0050 9818     		adds	r0, r3, r2
 801              	.LVL114:
 802 0052 FFF7FEFF 		bl	I2C_CLCD_PrintString
 803              	.LVL115:
 610:..\API/I2C_CLCD.c ****     }
 804              		.loc 1 610 0
 805 0056 05B0     		add	sp, sp, #20
 806              		.cfi_def_cfa_offset 4
 807              		@ sp needed
 808 0058 5DF804FB 		ldr	pc, [sp], #4
 809              	.L59:
 810              		.align	2
 811              	.L58:
 812 005c CDCCCCCC 		.word	-858993459
 813              		.cfi_endproc
 814              	.LFE15:
 815              		.size	I2C_CLCD_PrintU32Number, .-I2C_CLCD_PrintU32Number
 816              		.global	I2C_CLCD_BackLight
 817              		.global	slaveAddress
 818              		.global	I2C_CLCD_initVar
 819              		.global	I2C_CLCD_enableState
 820              		.section	.rodata
 821              		.align	2
 822              		.set	.LANCHOR2,. + 0
 823              		.type	I2C_CLCD_hex.4967, %object
 824              		.size	I2C_CLCD_hex.4967, 16
 825              	I2C_CLCD_hex.4967:
 826 0000 30313233 		.ascii	"0123456789ABCDEF"
 826      34353637 
 826      38394142 
 826      43444546 
 827              		.data
 828              		.set	.LANCHOR0,. + 0
 829              		.type	I2C_CLCD_BackLight, %object
 830              		.size	I2C_CLCD_BackLight, 1
 831              	I2C_CLCD_BackLight:
 832 0000 08       		.byte	8
 833              		.type	slaveAddress, %object
 834              		.size	slaveAddress, 1
 835              	slaveAddress:
 836 0001 27       		.byte	39
 837              		.bss
 838              		.set	.LANCHOR1,. + 0
 839              		.type	I2C_CLCD_enableState, %object
 840              		.size	I2C_CLCD_enableState, 1
 841              	I2C_CLCD_enableState:
 842 0000 00       		.space	1
 843              		.type	I2C_CLCD_initVar, %object
 844              		.size	I2C_CLCD_initVar, 1
 845              	I2C_CLCD_initVar:
 846 0001 00       		.space	1
 847              		.text
 848              	.Letext0:
 849              		.file 2 "Generated_Source\\PSoC5/cytypes.h"
ARM GAS  C:\Users\koseki\AppData\Local\Temp\ccAZfmk4.s 			page 28


 850              		.file 3 "Generated_Source\\PSoC5/I2C_1.h"
 851              		.file 4 "Generated_Source\\PSoC5/CyLib.h"