ARM GAS  C:\Users\koseki\AppData\Local\Temp\ccdZBtzx.s 			page 1


   1              		.syntax unified
   2              		.cpu cortex-m3
   3              		.fpu softvfp
   4              		.eabi_attribute 20, 1
   5              		.eabi_attribute 21, 1
   6              		.eabi_attribute 23, 3
   7              		.eabi_attribute 24, 1
   8              		.eabi_attribute 25, 1
   9              		.eabi_attribute 26, 1
  10              		.eabi_attribute 30, 1
  11              		.eabi_attribute 34, 1
  12              		.eabi_attribute 18, 4
  13              		.thumb
  14              		.file	"key.c"
  15              		.text
  16              	.Ltext0:
  17              		.cfi_sections	.debug_frame
  18              		.section	.text.Init_Key,"ax",%progbits
  19              		.align	2
  20              		.global	Init_Key
  21              		.thumb
  22              		.thumb_func
  23              		.type	Init_Key, %function
  24              	Init_Key:
  25              	.LFB64:
  26              		.file 1 "..\\API\\key.c"
   1:..\API/key.c  **** //=========================================================
   2:..\API/key.c  **** // PSoC5LP Project
   3:..\API/key.c  **** //=========================================================
   4:..\API/key.c  **** // File Name : key.c
   5:..\API/key.c  **** // Function  : Key/Switch Control
   6:..\API/key.c  **** //---------------------------------------------------------
   7:..\API/key.c  **** // Rev.01 2012.09.01 Munetomo Maruyama
   8:..\API/key.c  **** //---------------------------------------------------------
   9:..\API/key.c  **** // Copyright (C) 2012-2013 Munetomo Maruyama
  10:..\API/key.c  **** //=========================================================
  11:..\API/key.c  **** // ---- License Information -------------------------------
  12:..\API/key.c  **** // Anyone can FREELY use this code fully or partially
  13:..\API/key.c  **** // under conditions shown below.
  14:..\API/key.c  **** // 1. You may use this code only for individual purpose,
  15:..\API/key.c  **** //    and educational purpose.
  16:..\API/key.c  **** //    Do not use this code for business even if partially.
  17:..\API/key.c  **** // 2. You can copy, modify and distribute this code.
  18:..\API/key.c  **** // 3. You should remain this header text in your codes
  19:..\API/key.c  **** //   including Copyright credit and License Information.
  20:..\API/key.c  **** // 4. Your codes should inherit this license information.
  21:..\API/key.c  **** //=========================================================
  22:..\API/key.c  **** // ---- Patent Notice -------------------------------------
  23:..\API/key.c  **** // I have not cared whether this system (hw + sw) causes
  24:..\API/key.c  **** // infringement on the patent, copyright, trademark,
  25:..\API/key.c  **** // or trade secret rights of others. You have all
  26:..\API/key.c  **** // responsibilities for determining if your designs
  27:..\API/key.c  **** // and products infringe on the intellectual property
  28:..\API/key.c  **** // rights of others, when you use technical information
  29:..\API/key.c  **** // included in this system for your business.
  30:..\API/key.c  **** //=========================================================
  31:..\API/key.c  **** // ---- Disclaimers ---------------------------------------
ARM GAS  C:\Users\koseki\AppData\Local\Temp\ccdZBtzx.s 			page 2


  32:..\API/key.c  **** // The function and reliability of this system are not
  33:..\API/key.c  **** // guaranteed. They may cause any damages to loss of
  34:..\API/key.c  **** // properties, data, money, profits, life, or business.
  35:..\API/key.c  **** // By adopting this system even partially, you assume
  36:..\API/key.c  **** // all responsibility for its use.
  37:..\API/key.c  **** //=========================================================
  38:..\API/key.c  **** 
  39:..\API/key.c  **** #include "key.h"
  40:..\API/key.c  **** 
  41:..\API/key.c  **** //---------------------------
  42:..\API/key.c  **** // RTOS Includes
  43:..\API/key.c  **** //---------------------------
  44:..\API/key.c  **** #include "FreeRTOS.h"
  45:..\API/key.c  **** #include "queue.h"
  46:..\API/key.c  **** #include "semphr.h"
  47:..\API/key.c  **** #include "task.h"
  48:..\API/key.c  **** 
  49:..\API/key.c  **** //---------------------
  50:..\API/key.c  **** // Define Queue
  51:..\API/key.c  **** //---------------------
  52:..\API/key.c  **** extern xQueueHandle xQueue_KEY[2];
  53:..\API/key.c  **** 
  54:..\API/key.c  **** //---------------------
  55:..\API/key.c  **** // Key Detection Status
  56:..\API/key.c  **** //---------------------
  57:..\API/key.c  **** enum KEY_DETECT_STATUS {KEY_IDLE, KEY_DETECT, KEY_CONFIRM, KEY_PUSH, KEY_PUSH_COUNT, KEY_PUSH_LONG}
  58:..\API/key.c  **** 
  59:..\API/key.c  **** //---------------------
  60:..\API/key.c  **** // Globals
  61:..\API/key.c  **** //---------------------
  62:..\API/key.c  **** uint8 gKey[MAX_KEY];
  63:..\API/key.c  **** 
  64:..\API/key.c  **** //======================
  65:..\API/key.c  **** // Initialize Key
  66:..\API/key.c  **** //======================
  67:..\API/key.c  **** void Init_Key(void)
  68:..\API/key.c  **** {
  27              		.loc 1 68 0
  28              		.cfi_startproc
  29              		@ args = 0, pretend = 0, frame = 0
  30              		@ frame_needed = 0, uses_anonymous_args = 0
  31              		@ link register save eliminated.
  32              	.LVL0:
  69:..\API/key.c  ****     uint32 i;    
  70:..\API/key.c  ****     // Initialize State
  71:..\API/key.c  ****     for (i = 0; i < MAX_KEY; i++) gKey[i]  = 0;
  33              		.loc 1 71 0
  34 0000 0023     		movs	r3, #0
  35 0002 03E0     		b	.L2
  36              	.LVL1:
  37              	.L3:
  38              		.loc 1 71 0 is_stmt 0 discriminator 3
  39 0004 0021     		movs	r1, #0
  40 0006 034A     		ldr	r2, .L4
  41 0008 D154     		strb	r1, [r2, r3]
  42 000a 0133     		adds	r3, r3, #1
  43              	.LVL2:
ARM GAS  C:\Users\koseki\AppData\Local\Temp\ccdZBtzx.s 			page 3


  44              	.L2:
  45              		.loc 1 71 0 discriminator 1
  46 000c 012B     		cmp	r3, #1
  47 000e F9D9     		bls	.L3
  72:..\API/key.c  **** }
  48              		.loc 1 72 0 is_stmt 1
  49 0010 7047     		bx	lr
  50              	.L5:
  51 0012 00BF     		.align	2
  52              	.L4:
  53 0014 00000000 		.word	gKey
  54              		.cfi_endproc
  55              	.LFE64:
  56              		.size	Init_Key, .-Init_Key
  57              		.section	.text.Check_Key_Status,"ax",%progbits
  58              		.align	2
  59              		.global	Check_Key_Status
  60              		.thumb
  61              		.thumb_func
  62              		.type	Check_Key_Status, %function
  63              	Check_Key_Status:
  64              	.LFB65:
  73:..\API/key.c  **** 
  74:..\API/key.c  **** //=========================
  75:..\API/key.c  **** // Get Key Status
  76:..\API/key.c  **** //=========================
  77:..\API/key.c  **** uint8 Check_Key_Status(uint8 key)
  78:..\API/key.c  **** {
  65              		.loc 1 78 0
  66              		.cfi_startproc
  67              		@ args = 0, pretend = 0, frame = 0
  68              		@ frame_needed = 0, uses_anonymous_args = 0
  69              	.LVL3:
  70 0000 08B5     		push	{r3, lr}
  71              		.cfi_def_cfa_offset 8
  72              		.cfi_offset 3, -8
  73              		.cfi_offset 14, -4
  79:..\API/key.c  ****     uint8 status;
  80:..\API/key.c  ****     status = (key == KEY_0)? (~PI_KEY_0_Read()) & 0x01 :
  74              		.loc 1 80 0
  75 0002 30B9     		cbnz	r0, .L7
  76              		.loc 1 80 0 is_stmt 0 discriminator 1
  77 0004 FFF7FEFF 		bl	PI_KEY_0_Read
  78              	.LVL4:
  79 0008 80F00100 		eor	r0, r0, #1
  80 000c 00F00100 		and	r0, r0, #1
  81 0010 08BD     		pop	{r3, pc}
  82              	.LVL5:
  83              	.L7:
  81:..\API/key.c  ****              (key == KEY_1)? (~PI_KEY_1_Read()) & 0x01 :
  84              		.loc 1 81 0 is_stmt 1
  85 0012 0128     		cmp	r0, #1
  86 0014 06D1     		bne	.L10
  87              		.loc 1 81 0 is_stmt 0 discriminator 1
  88 0016 FFF7FEFF 		bl	PI_KEY_1_Read
  89              	.LVL6:
  90 001a 10F0010F 		tst	r0, #1
ARM GAS  C:\Users\koseki\AppData\Local\Temp\ccdZBtzx.s 			page 4


  91 001e 03D1     		bne	.L11
  92              		.loc 1 81 0
  93 0020 0120     		movs	r0, #1
  94 0022 02E0     		b	.L9
  95              	.LVL7:
  96              	.L10:
  97 0024 0020     		movs	r0, #0
  98              	.LVL8:
  99 0026 00E0     		b	.L9
 100              	.L11:
 101 0028 0020     		movs	r0, #0
 102              	.L9:
  80:..\API/key.c  ****              (key == KEY_1)? (~PI_KEY_1_Read()) & 0x01 :
 103              		.loc 1 80 0 is_stmt 1 discriminator 3
 104 002a C0B2     		uxtb	r0, r0
 105              	.LVL9:
  82:..\API/key.c  ****              0;
  83:..\API/key.c  ****     return status;
  84:..\API/key.c  **** }
 106              		.loc 1 84 0 discriminator 3
 107 002c 08BD     		pop	{r3, pc}
 108              		.cfi_endproc
 109              	.LFE65:
 110              		.size	Check_Key_Status, .-Check_Key_Status
 111 002e 00BF     		.section	.text.Task_KEY,"ax",%progbits
 112              		.align	2
 113              		.global	Task_KEY
 114              		.thumb
 115              		.thumb_func
 116              		.type	Task_KEY, %function
 117              	Task_KEY:
 118              	.LFB66:
  85:..\API/key.c  **** 
  86:..\API/key.c  **** //=========================
  87:..\API/key.c  **** // Task KEY
  88:..\API/key.c  **** //=========================
  89:..\API/key.c  **** void Task_KEY(void *pvParameters)
  90:..\API/key.c  **** {
 119              		.loc 1 90 0
 120              		.cfi_startproc
 121              		@ args = 0, pretend = 0, frame = 0
 122              		@ frame_needed = 0, uses_anonymous_args = 0
 123              	.LVL10:
 124 0000 10B5     		push	{r4, lr}
 125              		.cfi_def_cfa_offset 8
 126              		.cfi_offset 4, -8
 127              		.cfi_offset 14, -4
 128              	.LVL11:
 129              	.L30:
  91:..\API/key.c  ****     static uint32 i;
  92:..\API/key.c  ****     static uint8 key;
  93:..\API/key.c  ****     static uint32 push_count[MAX_KEY];
  94:..\API/key.c  ****     static uint8 qmsg = 1;
  95:..\API/key.c  ****     
  96:..\API/key.c  ****     // Block for 10ms
  97:..\API/key.c  ****     const portTickType xDelay = 10 / portTICK_RATE_MS;
  98:..\API/key.c  ****     
ARM GAS  C:\Users\koseki\AppData\Local\Temp\ccdZBtzx.s 			page 5


  99:..\API/key.c  ****     // Task Loop
 100:..\API/key.c  ****     while(1)
 101:..\API/key.c  ****     {   
 102:..\API/key.c  ****         // State Machine for Key Detection
 103:..\API/key.c  ****         for (i = 0; i < MAX_KEY; i++)
 130              		.loc 1 103 0
 131 0002 0022     		movs	r2, #0
 132 0004 324B     		ldr	r3, .L32
 133 0006 1A60     		str	r2, [r3]
 134 0008 59E0     		b	.L14
 135              	.L29:
 104:..\API/key.c  ****         {
 105:..\API/key.c  ****             key = Check_Key_Status(i);
 136              		.loc 1 105 0
 137 000a C0B2     		uxtb	r0, r0
 138 000c FFF7FEFF 		bl	Check_Key_Status
 139              	.LVL12:
 140 0010 2F4B     		ldr	r3, .L32
 141 0012 1871     		strb	r0, [r3, #4]
 106:..\API/key.c  ****             //
 107:..\API/key.c  ****             switch(gKey[i])
 142              		.loc 1 107 0
 143 0014 1B68     		ldr	r3, [r3]
 144 0016 2F4A     		ldr	r2, .L32+4
 145 0018 D45C     		ldrb	r4, [r2, r3]	@ zero_extendqisi2
 146 001a 052C     		cmp	r4, #5
 147 001c 4BD8     		bhi	.L15
 148 001e DFE804F0 		tbb	[pc, r4]
 149              	.L17:
 150 0022 03       		.byte	(.L16-.L17)/2
 151 0023 09       		.byte	(.L18-.L17)/2
 152 0024 0E       		.byte	(.L19-.L17)/2
 153 0025 13       		.byte	(.L20-.L17)/2
 154 0026 27       		.byte	(.L21-.L17)/2
 155 0027 3B       		.byte	(.L22-.L17)/2
 156              		.p2align 1
 157              	.L16:
 108:..\API/key.c  ****             {
 109:..\API/key.c  ****                 case KEY_IDLE:
 110:..\API/key.c  ****                 {
 111:..\API/key.c  ****                     gKey[i] = (key)? KEY_DETECT : KEY_IDLE;
 158              		.loc 1 111 0
 159 0028 0030     		adds	r0, r0, #0
 160 002a 18BF     		it	ne
 161 002c 0120     		movne	r0, #1
 162 002e 294A     		ldr	r2, .L32+4
 163 0030 D054     		strb	r0, [r2, r3]
 112:..\API/key.c  ****                     break;
 164              		.loc 1 112 0
 165 0032 40E0     		b	.L15
 166              	.L18:
 113:..\API/key.c  ****                 }
 114:..\API/key.c  ****                 case KEY_DETECT:
 115:..\API/key.c  ****                 {
 116:..\API/key.c  ****                     gKey[i] = (key)? KEY_CONFIRM : KEY_IDLE;
 167              		.loc 1 116 0
 168 0034 00B1     		cbz	r0, .L23
ARM GAS  C:\Users\koseki\AppData\Local\Temp\ccdZBtzx.s 			page 6


 169 0036 0220     		movs	r0, #2
 170              	.L23:
 171              		.loc 1 116 0 is_stmt 0 discriminator 4
 172 0038 264A     		ldr	r2, .L32+4
 173 003a D054     		strb	r0, [r2, r3]
 117:..\API/key.c  ****                     break;
 174              		.loc 1 117 0 is_stmt 1 discriminator 4
 175 003c 3BE0     		b	.L15
 176              	.L19:
 118:..\API/key.c  ****                 }
 119:..\API/key.c  ****                 case KEY_CONFIRM:
 120:..\API/key.c  ****                 {
 121:..\API/key.c  ****                     gKey[i] = (key)? KEY_PUSH : KEY_IDLE;
 177              		.loc 1 121 0
 178 003e 00B1     		cbz	r0, .L24
 179 0040 0320     		movs	r0, #3
 180              	.L24:
 181              		.loc 1 121 0 is_stmt 0 discriminator 4
 182 0042 244A     		ldr	r2, .L32+4
 183 0044 D054     		strb	r0, [r2, r3]
 122:..\API/key.c  ****                     break;
 184              		.loc 1 122 0 is_stmt 1 discriminator 4
 185 0046 36E0     		b	.L15
 186              	.L20:
 123:..\API/key.c  ****                 }
 124:..\API/key.c  ****                 case KEY_PUSH:
 125:..\API/key.c  ****                 {
 126:..\API/key.c  ****                     xQueueSend(xQueue_KEY[i], &qmsg, 0);
 187              		.loc 1 126 0
 188 0048 234A     		ldr	r2, .L32+8
 189 004a 52F82300 		ldr	r0, [r2, r3, lsl #2]
 190 004e 2349     		ldr	r1, .L32+12
 191 0050 0022     		movs	r2, #0
 192 0052 1346     		mov	r3, r2
 193 0054 FFF7FEFF 		bl	xQueueGenericSend
 194              	.LVL13:
 127:..\API/key.c  ****                     push_count[i] = 0;
 195              		.loc 1 127 0
 196 0058 1D4B     		ldr	r3, .L32
 197 005a 1A68     		ldr	r2, [r3]
 198 005c 03EB8201 		add	r1, r3, r2, lsl #2
 199 0060 0020     		movs	r0, #0
 200 0062 8860     		str	r0, [r1, #8]
 128:..\API/key.c  ****                     gKey[i] = (key)? KEY_PUSH_COUNT : KEY_IDLE;
 201              		.loc 1 128 0
 202 0064 1B79     		ldrb	r3, [r3, #4]	@ zero_extendqisi2
 203 0066 03B1     		cbz	r3, .L25
 204 0068 0423     		movs	r3, #4
 205              	.L25:
 206              		.loc 1 128 0 is_stmt 0 discriminator 4
 207 006a 1A49     		ldr	r1, .L32+4
 208 006c 8B54     		strb	r3, [r1, r2]
 129:..\API/key.c  ****                     break;
 209              		.loc 1 129 0 is_stmt 1 discriminator 4
 210 006e 22E0     		b	.L15
 211              	.L21:
 130:..\API/key.c  ****                 }
ARM GAS  C:\Users\koseki\AppData\Local\Temp\ccdZBtzx.s 			page 7


 131:..\API/key.c  ****                 case KEY_PUSH_COUNT:
 132:..\API/key.c  ****                 {
 133:..\API/key.c  ****                     if (key)
 212              		.loc 1 133 0
 213 0070 70B1     		cbz	r0, .L26
 134:..\API/key.c  ****                     {
 135:..\API/key.c  ****                         gKey[i] = (push_count[i] > KEY_PUSH_LONG_TICKS)? KEY_PUSH_LONG : KEY_PUSH_C
 214              		.loc 1 135 0
 215 0072 174A     		ldr	r2, .L32
 216 0074 02EB8302 		add	r2, r2, r3, lsl #2
 217 0078 9268     		ldr	r2, [r2, #8]
 218 007a 322A     		cmp	r2, #50
 219 007c 00D9     		bls	.L27
 220 007e 0524     		movs	r4, #5
 221              	.L27:
 222              		.loc 1 135 0 is_stmt 0 discriminator 4
 223 0080 1449     		ldr	r1, .L32+4
 224 0082 CC54     		strb	r4, [r1, r3]
 136:..\API/key.c  ****                         push_count[i]++;
 225              		.loc 1 136 0 is_stmt 1 discriminator 4
 226 0084 1249     		ldr	r1, .L32
 227 0086 01EB8303 		add	r3, r1, r3, lsl #2
 228 008a 0132     		adds	r2, r2, #1
 229 008c 9A60     		str	r2, [r3, #8]
 230 008e 12E0     		b	.L15
 231              	.L26:
 137:..\API/key.c  ****                     }
 138:..\API/key.c  ****                     else
 139:..\API/key.c  ****                     {
 140:..\API/key.c  ****                         gKey[i] = KEY_IDLE;
 232              		.loc 1 140 0
 233 0090 0021     		movs	r1, #0
 234 0092 104A     		ldr	r2, .L32+4
 235 0094 D154     		strb	r1, [r2, r3]
 236 0096 0EE0     		b	.L15
 237              	.L22:
 141:..\API/key.c  ****                     }
 142:..\API/key.c  ****                     break;
 143:..\API/key.c  ****                 }
 144:..\API/key.c  ****                 case KEY_PUSH_LONG:
 145:..\API/key.c  ****                 {
 146:..\API/key.c  ****                     xQueueSend(xQueue_KEY[i], &qmsg, 0);
 238              		.loc 1 146 0
 239 0098 0F4A     		ldr	r2, .L32+8
 240 009a 52F82300 		ldr	r0, [r2, r3, lsl #2]
 241 009e 0F49     		ldr	r1, .L32+12
 242 00a0 0022     		movs	r2, #0
 243 00a2 1346     		mov	r3, r2
 244 00a4 FFF7FEFF 		bl	xQueueGenericSend
 245              	.LVL14:
 147:..\API/key.c  ****                     gKey[i] = (key)? KEY_PUSH_LONG : KEY_IDLE;
 246              		.loc 1 147 0
 247 00a8 094B     		ldr	r3, .L32
 248 00aa 1A68     		ldr	r2, [r3]
 249 00ac 1B79     		ldrb	r3, [r3, #4]	@ zero_extendqisi2
 250 00ae 03B1     		cbz	r3, .L28
 251 00b0 2346     		mov	r3, r4
ARM GAS  C:\Users\koseki\AppData\Local\Temp\ccdZBtzx.s 			page 8


 252              	.L28:
 253              		.loc 1 147 0 is_stmt 0 discriminator 4
 254 00b2 0849     		ldr	r1, .L32+4
 255 00b4 8B54     		strb	r3, [r1, r2]
 256              	.L15:
 103:..\API/key.c  ****         {
 257              		.loc 1 103 0 is_stmt 1 discriminator 2
 258 00b6 064A     		ldr	r2, .L32
 259 00b8 1368     		ldr	r3, [r2]
 260 00ba 0133     		adds	r3, r3, #1
 261 00bc 1360     		str	r3, [r2]
 262              	.L14:
 103:..\API/key.c  ****         {
 263              		.loc 1 103 0 is_stmt 0 discriminator 1
 264 00be 044B     		ldr	r3, .L32
 265 00c0 1868     		ldr	r0, [r3]
 266 00c2 0128     		cmp	r0, #1
 267 00c4 A1D9     		bls	.L29
 148:..\API/key.c  ****                     break;
 149:..\API/key.c  ****                 }
 150:..\API/key.c  ****                 default:
 151:..\API/key.c  ****                 {
 152:..\API/key.c  ****                     break; // do nothing
 153:..\API/key.c  ****                 }
 154:..\API/key.c  ****             }
 155:..\API/key.c  ****         }
 156:..\API/key.c  ****         // Blocking Task
 157:..\API/key.c  ****         vTaskDelay(xDelay);
 268              		.loc 1 157 0 is_stmt 1
 269 00c6 0A20     		movs	r0, #10
 270 00c8 FFF7FEFF 		bl	vTaskDelay
 271              	.LVL15:
 158:..\API/key.c  ****     }
 272              		.loc 1 158 0
 273 00cc 99E7     		b	.L30
 274              	.L33:
 275 00ce 00BF     		.align	2
 276              	.L32:
 277 00d0 00000000 		.word	.LANCHOR0
 278 00d4 00000000 		.word	gKey
 279 00d8 00000000 		.word	xQueue_KEY
 280 00dc 00000000 		.word	.LANCHOR1
 281              		.cfi_endproc
 282              	.LFE66:
 283              		.size	Task_KEY, .-Task_KEY
 284              		.comm	gKey,2,4
 285              		.data
 286              		.set	.LANCHOR1,. + 0
 287              		.type	qmsg.6056, %object
 288              		.size	qmsg.6056, 1
 289              	qmsg.6056:
 290 0000 01       		.byte	1
 291              		.bss
 292              		.align	2
 293              		.set	.LANCHOR0,. + 0
 294              		.type	i.6053, %object
 295              		.size	i.6053, 4
ARM GAS  C:\Users\koseki\AppData\Local\Temp\ccdZBtzx.s 			page 9


 296              	i.6053:
 297 0000 00000000 		.space	4
 298              		.type	key.6054, %object
 299              		.size	key.6054, 1
 300              	key.6054:
 301 0004 00       		.space	1
 302 0005 000000   		.space	3
 303              		.type	push_count.6055, %object
 304              		.size	push_count.6055, 8
 305              	push_count.6055:
 306 0008 00000000 		.space	8
 306      00000000 
 307              		.text
 308              	.Letext0:
 309              		.file 2 "c:\\program files (x86)\\cypress\\psoc creator\\3.3\\psoc creator\\import\\gnu\\arm\\4.9.
 310              		.file 3 "c:\\program files (x86)\\cypress\\psoc creator\\3.3\\psoc creator\\import\\gnu\\arm\\4.9.
 311              		.file 4 "Generated_Source\\PSoC5/cytypes.h"
 312              		.file 5 "..\\FreeRTOS/portmacro.h"
 313              		.file 6 "..\\FreeRTOS/queue.h"
 314              		.file 7 "..\\API\\key.h"
 315              		.file 8 "Generated_Source\\PSoC5/core_cm3.h"
 316              		.file 9 "Generated_Source\\PSoC5/PI_KEY_0.h"
 317              		.file 10 "Generated_Source\\PSoC5/PI_KEY_1.h"
 318              		.file 11 "..\\FreeRTOS/task.h"